
/tmp/nsichneu:     file format elf32-littlearm

SYMBOL TABLE:
00008000 l    d  .text	00000000 .text
0001ff5c l    d  .data	00000000 .data
0001ff64 l    d  .bss	00000000 .bss
00000000 l    d  .comment	00000000 .comment
00000000 l    d  .wcet_annot	00000000 .wcet_annot
00000000 l    d  .debug_aranges	00000000 .debug_aranges
00000000 l    d  .debug_info	00000000 .debug_info
00000000 l    d  .debug_abbrev	00000000 .debug_abbrev
00000000 l    d  .debug_line	00000000 .debug_line
00000000 l    d  .debug_frame	00000000 .debug_frame
00000000 l    d  .debug_str	00000000 .debug_str
00000000 l    d  .ARM.attributes	00000000 .ARM.attributes
00000000 l    df *ABS*	00000000 nsichneu.c
00008040 g     F .text	00000008 __aeabi_dcmple
0001ff68 g     O .bss	00000018 P3_marking_member_0
0001ffa0 g       .bss	00000000 _bss_end__
00008098 g     F .text	00000008 __aeabi_fadd
0001ff80 g     O .bss	0000000c P1_marking_member_0
00008068 g     F .text	00000008 __aeabi_fcmpgt
0001ff64 g       .bss	00000000 __bss_start__
000080a8 g     F .text	00000008 __aeabi_ui2d
00008010 g     F .text	00000008 __aeabi_ddiv
00008020 g     F .text	00000008 __aeabi_dmul
00008048 g     F .text	00000008 __aeabi_d2f
00008088 g     F .text	00000008 __aeabi_fsub
00008050 g     F .text	00000008 __aeabi_dadd
00008000 g     F .text	00000008 __aeabi_idiv
00008038 g     F .text	00000008 __aeabi_dcmpgt
0001ffa0 g       .bss	00000000 __bss_end__
00008028 g     F .text	00000008 __aeabi_dcmpge
00008018 g     F .text	00000008 __aeabi_dsub
00008070 g     F .text	00000008 __aeabi_fdiv
00008008 g     F .text	00000008 __aeabi_i2d
0001ff60 g     O .data	00000004 P2_is_marked
0001ff64 g       .bss	00000000 __bss_start
000080b0 g     F .text	00007eac main
0001ff64 g     O .bss	00000004 P3_is_marked
0001ff5c g     O .data	00000004 P1_is_marked
0001ffa0 g       .bss	00000000 __end__
000080a0 g     F .text	00000008 __aeabi_ui2
00008078 g     F .text	00000008 __aeabi_fcmpeq
00008080 g     F .text	00000008 __aeabi_fmul
0001ff8c g     O .bss	00000014 P2_marking_member_0
00008060 g     F .text	00000008 __aeabi_fcmplt
00008030 g     F .text	00000008 __aeabi_dcmpeq
0001ff64 g       .data	00000000 _edata
0001ffa0 g       .bss	00000000 _end
00008058 g     F .text	00000008 __aeabi_d2iz
00080000 g       .ARM.attributes	00000000 _stack
00008090 g     F .text	00000008 __aeabi_f2d
0001ff5c g       .data	00000000 __data_start



Disassembly of section .text:

00008000 <__aeabi_idiv>:
    8000:	e1a00000 	nop			; (mov r0, r0)
    8004:	e12fff1e 	bx	lr

00008008 <__aeabi_i2d>:
    8008:	e1a00000 	nop			; (mov r0, r0)
    800c:	e12fff1e 	bx	lr

00008010 <__aeabi_ddiv>:
    8010:	e1a00000 	nop			; (mov r0, r0)
    8014:	e12fff1e 	bx	lr

00008018 <__aeabi_dsub>:
    8018:	e1a00000 	nop			; (mov r0, r0)
    801c:	e12fff1e 	bx	lr

00008020 <__aeabi_dmul>:
    8020:	e1a00000 	nop			; (mov r0, r0)
    8024:	e12fff1e 	bx	lr

00008028 <__aeabi_dcmpge>:
    8028:	e1a00000 	nop			; (mov r0, r0)
    802c:	e12fff1e 	bx	lr

00008030 <__aeabi_dcmpeq>:
    8030:	e1a00000 	nop			; (mov r0, r0)
    8034:	e12fff1e 	bx	lr

00008038 <__aeabi_dcmpgt>:
    8038:	e1a00000 	nop			; (mov r0, r0)
    803c:	e12fff1e 	bx	lr

00008040 <__aeabi_dcmple>:
    8040:	e1a00000 	nop			; (mov r0, r0)
    8044:	e12fff1e 	bx	lr

00008048 <__aeabi_d2f>:
    8048:	e1a00000 	nop			; (mov r0, r0)
    804c:	e12fff1e 	bx	lr

00008050 <__aeabi_dadd>:
    8050:	e1a00000 	nop			; (mov r0, r0)
    8054:	e12fff1e 	bx	lr

00008058 <__aeabi_d2iz>:
    8058:	e1a00000 	nop			; (mov r0, r0)
    805c:	e12fff1e 	bx	lr

00008060 <__aeabi_fcmplt>:
    8060:	e1a00000 	nop			; (mov r0, r0)
    8064:	e12fff1e 	bx	lr

00008068 <__aeabi_fcmpgt>:
    8068:	e1a00000 	nop			; (mov r0, r0)
    806c:	e12fff1e 	bx	lr

00008070 <__aeabi_fdiv>:
    8070:	e1a00000 	nop			; (mov r0, r0)
    8074:	e12fff1e 	bx	lr

00008078 <__aeabi_fcmpeq>:
    8078:	e1a00000 	nop			; (mov r0, r0)
    807c:	e12fff1e 	bx	lr

00008080 <__aeabi_fmul>:
    8080:	e1a00000 	nop			; (mov r0, r0)
    8084:	e12fff1e 	bx	lr

00008088 <__aeabi_fsub>:
    8088:	e1a00000 	nop			; (mov r0, r0)
    808c:	e12fff1e 	bx	lr

00008090 <__aeabi_f2d>:
    8090:	e1a00000 	nop			; (mov r0, r0)
    8094:	e12fff1e 	bx	lr

00008098 <__aeabi_fadd>:
    8098:	e1a00000 	nop			; (mov r0, r0)
    809c:	e12fff1e 	bx	lr

000080a0 <__aeabi_ui2>:
    80a0:	e1a00000 	nop			; (mov r0, r0)
    80a4:	e12fff1e 	bx	lr

000080a8 <__aeabi_ui2d>:
    80a8:	e1a00000 	nop			; (mov r0, r0)
    80ac:	e12fff1e 	bx	lr

000080b0 <main>:
    80b0:	e24dde5f 	sub	sp, sp, #1520	; 0x5f0
    80b4:	e3a03002 	mov	r3, #2
    80b8:	e58d35ec 	str	r3, [sp, #1516]	; 0x5ec
    80bc:	ea001f9d 	b	ff38 <main+0x7e88>
    80c0:	e59d35ec 	ldr	r3, [sp, #1516]	; 0x5ec
    80c4:	e2433001 	sub	r3, r3, #1
    80c8:	e58d35ec 	str	r3, [sp, #1516]	; 0x5ec
    80cc:	e59f3ff4 	ldr	r3, [pc, #4084]	; 90c8 <main+0x1018>
    80d0:	e5933000 	ldr	r3, [r3]
    80d4:	e3530002 	cmp	r3, #2
    80d8:	da000033 	ble	81ac <main+0xfc>
    80dc:	e59f3fe8 	ldr	r3, [pc, #4072]	; 90cc <main+0x101c>
    80e0:	e5933000 	ldr	r3, [r3]
    80e4:	e2833003 	add	r3, r3, #3
    80e8:	e3530006 	cmp	r3, #6
    80ec:	ca00002e 	bgt	81ac <main+0xfc>
    80f0:	e59f3fd8 	ldr	r3, [pc, #4056]	; 90d0 <main+0x1020>
    80f4:	e5932004 	ldr	r2, [r3, #4]
    80f8:	e59f3fd0 	ldr	r3, [pc, #4048]	; 90d0 <main+0x1020>
    80fc:	e5933008 	ldr	r3, [r3, #8]
    8100:	e1520003 	cmp	r2, r3
    8104:	1a000028 	bne	81ac <main+0xfc>
    8108:	e59f3fc0 	ldr	r3, [pc, #4032]	; 90d0 <main+0x1020>
    810c:	e5933000 	ldr	r3, [r3]
    8110:	e58d35e8 	str	r3, [sp, #1512]	; 0x5e8
    8114:	e59f3fb4 	ldr	r3, [pc, #4020]	; 90d0 <main+0x1020>
    8118:	e5933004 	ldr	r3, [r3, #4]
    811c:	e58d35e4 	str	r3, [sp, #1508]	; 0x5e4
    8120:	e59d25e8 	ldr	r2, [sp, #1512]	; 0x5e8
    8124:	e59d35e4 	ldr	r3, [sp, #1508]	; 0x5e4
    8128:	e1520003 	cmp	r2, r3
    812c:	aa00001e 	bge	81ac <main+0xfc>
    8130:	e59f3f90 	ldr	r3, [pc, #3984]	; 90c8 <main+0x1018>
    8134:	e5933000 	ldr	r3, [r3]
    8138:	e2433003 	sub	r3, r3, #3
    813c:	e59f2f84 	ldr	r2, [pc, #3972]	; 90c8 <main+0x1018>
    8140:	e5823000 	str	r3, [r2]
    8144:	e59d25e8 	ldr	r2, [sp, #1512]	; 0x5e8
    8148:	e59d35e4 	ldr	r3, [sp, #1508]	; 0x5e4
    814c:	e0633002 	rsb	r3, r3, r2
    8150:	e58d35e0 	str	r3, [sp, #1504]	; 0x5e0
    8154:	e59f3f70 	ldr	r3, [pc, #3952]	; 90cc <main+0x101c>
    8158:	e5933000 	ldr	r3, [r3]
    815c:	e59f1f70 	ldr	r1, [pc, #3952]	; 90d4 <main+0x1024>
    8160:	e59d25e8 	ldr	r2, [sp, #1512]	; 0x5e8
    8164:	e7812103 	str	r2, [r1, r3, lsl #2]
    8168:	e59f3f5c 	ldr	r3, [pc, #3932]	; 90cc <main+0x101c>
    816c:	e5933000 	ldr	r3, [r3]
    8170:	e2833001 	add	r3, r3, #1
    8174:	e59f1f58 	ldr	r1, [pc, #3928]	; 90d4 <main+0x1024>
    8178:	e59d25e4 	ldr	r2, [sp, #1508]	; 0x5e4
    817c:	e7812103 	str	r2, [r1, r3, lsl #2]
    8180:	e59f3f44 	ldr	r3, [pc, #3908]	; 90cc <main+0x101c>
    8184:	e5933000 	ldr	r3, [r3]
    8188:	e2833002 	add	r3, r3, #2
    818c:	e59f1f40 	ldr	r1, [pc, #3904]	; 90d4 <main+0x1024>
    8190:	e59d25e0 	ldr	r2, [sp, #1504]	; 0x5e0
    8194:	e7812103 	str	r2, [r1, r3, lsl #2]
    8198:	e59f3f2c 	ldr	r3, [pc, #3884]	; 90cc <main+0x101c>
    819c:	e5933000 	ldr	r3, [r3]
    81a0:	e2833003 	add	r3, r3, #3
    81a4:	e59f2f20 	ldr	r2, [pc, #3872]	; 90cc <main+0x101c>
    81a8:	e5823000 	str	r3, [r2]
    81ac:	e59f3f14 	ldr	r3, [pc, #3860]	; 90c8 <main+0x1018>
    81b0:	e5933000 	ldr	r3, [r3]
    81b4:	e3530002 	cmp	r3, #2
    81b8:	da000033 	ble	828c <main+0x1dc>
    81bc:	e59f3f08 	ldr	r3, [pc, #3848]	; 90cc <main+0x101c>
    81c0:	e5933000 	ldr	r3, [r3]
    81c4:	e2833003 	add	r3, r3, #3
    81c8:	e3530006 	cmp	r3, #6
    81cc:	ca00002e 	bgt	828c <main+0x1dc>
    81d0:	e59f3ef8 	ldr	r3, [pc, #3832]	; 90d0 <main+0x1020>
    81d4:	e5932008 	ldr	r2, [r3, #8]
    81d8:	e59f3ef0 	ldr	r3, [pc, #3824]	; 90d0 <main+0x1020>
    81dc:	e5933004 	ldr	r3, [r3, #4]
    81e0:	e1520003 	cmp	r2, r3
    81e4:	1a000028 	bne	828c <main+0x1dc>
    81e8:	e59f3ee0 	ldr	r3, [pc, #3808]	; 90d0 <main+0x1020>
    81ec:	e5933000 	ldr	r3, [r3]
    81f0:	e58d35dc 	str	r3, [sp, #1500]	; 0x5dc
    81f4:	e59f3ed4 	ldr	r3, [pc, #3796]	; 90d0 <main+0x1020>
    81f8:	e5933008 	ldr	r3, [r3, #8]
    81fc:	e58d35d8 	str	r3, [sp, #1496]	; 0x5d8
    8200:	e59d25dc 	ldr	r2, [sp, #1500]	; 0x5dc
    8204:	e59d35d8 	ldr	r3, [sp, #1496]	; 0x5d8
    8208:	e1520003 	cmp	r2, r3
    820c:	aa00001e 	bge	828c <main+0x1dc>
    8210:	e59f3eb0 	ldr	r3, [pc, #3760]	; 90c8 <main+0x1018>
    8214:	e5933000 	ldr	r3, [r3]
    8218:	e2433003 	sub	r3, r3, #3
    821c:	e59f2ea4 	ldr	r2, [pc, #3748]	; 90c8 <main+0x1018>
    8220:	e5823000 	str	r3, [r2]
    8224:	e59d25dc 	ldr	r2, [sp, #1500]	; 0x5dc
    8228:	e59d35d8 	ldr	r3, [sp, #1496]	; 0x5d8
    822c:	e0633002 	rsb	r3, r3, r2
    8230:	e58d35d4 	str	r3, [sp, #1492]	; 0x5d4
    8234:	e59f3e90 	ldr	r3, [pc, #3728]	; 90cc <main+0x101c>
    8238:	e5933000 	ldr	r3, [r3]
    823c:	e59f1e90 	ldr	r1, [pc, #3728]	; 90d4 <main+0x1024>
    8240:	e59d25dc 	ldr	r2, [sp, #1500]	; 0x5dc
    8244:	e7812103 	str	r2, [r1, r3, lsl #2]
    8248:	e59f3e7c 	ldr	r3, [pc, #3708]	; 90cc <main+0x101c>
    824c:	e5933000 	ldr	r3, [r3]
    8250:	e2833001 	add	r3, r3, #1
    8254:	e59f1e78 	ldr	r1, [pc, #3704]	; 90d4 <main+0x1024>
    8258:	e59d25d8 	ldr	r2, [sp, #1496]	; 0x5d8
    825c:	e7812103 	str	r2, [r1, r3, lsl #2]
    8260:	e59f3e64 	ldr	r3, [pc, #3684]	; 90cc <main+0x101c>
    8264:	e5933000 	ldr	r3, [r3]
    8268:	e2833002 	add	r3, r3, #2
    826c:	e59f1e60 	ldr	r1, [pc, #3680]	; 90d4 <main+0x1024>
    8270:	e59d25d4 	ldr	r2, [sp, #1492]	; 0x5d4
    8274:	e7812103 	str	r2, [r1, r3, lsl #2]
    8278:	e59f3e4c 	ldr	r3, [pc, #3660]	; 90cc <main+0x101c>
    827c:	e5933000 	ldr	r3, [r3]
    8280:	e2833003 	add	r3, r3, #3
    8284:	e59f2e40 	ldr	r2, [pc, #3648]	; 90cc <main+0x101c>
    8288:	e5823000 	str	r3, [r2]
    828c:	e59f3e34 	ldr	r3, [pc, #3636]	; 90c8 <main+0x1018>
    8290:	e5933000 	ldr	r3, [r3]
    8294:	e3530002 	cmp	r3, #2
    8298:	da000033 	ble	836c <main+0x2bc>
    829c:	e59f3e28 	ldr	r3, [pc, #3624]	; 90cc <main+0x101c>
    82a0:	e5933000 	ldr	r3, [r3]
    82a4:	e2833003 	add	r3, r3, #3
    82a8:	e3530006 	cmp	r3, #6
    82ac:	ca00002e 	bgt	836c <main+0x2bc>
    82b0:	e59f3e18 	ldr	r3, [pc, #3608]	; 90d0 <main+0x1020>
    82b4:	e5932000 	ldr	r2, [r3]
    82b8:	e59f3e10 	ldr	r3, [pc, #3600]	; 90d0 <main+0x1020>
    82bc:	e5933008 	ldr	r3, [r3, #8]
    82c0:	e1520003 	cmp	r2, r3
    82c4:	1a000028 	bne	836c <main+0x2bc>
    82c8:	e59f3e00 	ldr	r3, [pc, #3584]	; 90d0 <main+0x1020>
    82cc:	e5933004 	ldr	r3, [r3, #4]
    82d0:	e58d35d0 	str	r3, [sp, #1488]	; 0x5d0
    82d4:	e59f3df4 	ldr	r3, [pc, #3572]	; 90d0 <main+0x1020>
    82d8:	e5933000 	ldr	r3, [r3]
    82dc:	e58d35cc 	str	r3, [sp, #1484]	; 0x5cc
    82e0:	e59d25d0 	ldr	r2, [sp, #1488]	; 0x5d0
    82e4:	e59d35cc 	ldr	r3, [sp, #1484]	; 0x5cc
    82e8:	e1520003 	cmp	r2, r3
    82ec:	aa00001e 	bge	836c <main+0x2bc>
    82f0:	e59f3dd0 	ldr	r3, [pc, #3536]	; 90c8 <main+0x1018>
    82f4:	e5933000 	ldr	r3, [r3]
    82f8:	e2433003 	sub	r3, r3, #3
    82fc:	e59f2dc4 	ldr	r2, [pc, #3524]	; 90c8 <main+0x1018>
    8300:	e5823000 	str	r3, [r2]
    8304:	e59d25d0 	ldr	r2, [sp, #1488]	; 0x5d0
    8308:	e59d35cc 	ldr	r3, [sp, #1484]	; 0x5cc
    830c:	e0633002 	rsb	r3, r3, r2
    8310:	e58d35c8 	str	r3, [sp, #1480]	; 0x5c8
    8314:	e59f3db0 	ldr	r3, [pc, #3504]	; 90cc <main+0x101c>
    8318:	e5933000 	ldr	r3, [r3]
    831c:	e59f1db0 	ldr	r1, [pc, #3504]	; 90d4 <main+0x1024>
    8320:	e59d25d0 	ldr	r2, [sp, #1488]	; 0x5d0
    8324:	e7812103 	str	r2, [r1, r3, lsl #2]
    8328:	e59f3d9c 	ldr	r3, [pc, #3484]	; 90cc <main+0x101c>
    832c:	e5933000 	ldr	r3, [r3]
    8330:	e2833001 	add	r3, r3, #1
    8334:	e59f1d98 	ldr	r1, [pc, #3480]	; 90d4 <main+0x1024>
    8338:	e59d25cc 	ldr	r2, [sp, #1484]	; 0x5cc
    833c:	e7812103 	str	r2, [r1, r3, lsl #2]
    8340:	e59f3d84 	ldr	r3, [pc, #3460]	; 90cc <main+0x101c>
    8344:	e5933000 	ldr	r3, [r3]
    8348:	e2833002 	add	r3, r3, #2
    834c:	e59f1d80 	ldr	r1, [pc, #3456]	; 90d4 <main+0x1024>
    8350:	e59d25c8 	ldr	r2, [sp, #1480]	; 0x5c8
    8354:	e7812103 	str	r2, [r1, r3, lsl #2]
    8358:	e59f3d6c 	ldr	r3, [pc, #3436]	; 90cc <main+0x101c>
    835c:	e5933000 	ldr	r3, [r3]
    8360:	e2833003 	add	r3, r3, #3
    8364:	e59f2d60 	ldr	r2, [pc, #3424]	; 90cc <main+0x101c>
    8368:	e5823000 	str	r3, [r2]
    836c:	e59f3d54 	ldr	r3, [pc, #3412]	; 90c8 <main+0x1018>
    8370:	e5933000 	ldr	r3, [r3]
    8374:	e3530002 	cmp	r3, #2
    8378:	da000033 	ble	844c <main+0x39c>
    837c:	e59f3d48 	ldr	r3, [pc, #3400]	; 90cc <main+0x101c>
    8380:	e5933000 	ldr	r3, [r3]
    8384:	e2833003 	add	r3, r3, #3
    8388:	e3530006 	cmp	r3, #6
    838c:	ca00002e 	bgt	844c <main+0x39c>
    8390:	e59f3d38 	ldr	r3, [pc, #3384]	; 90d0 <main+0x1020>
    8394:	e5932008 	ldr	r2, [r3, #8]
    8398:	e59f3d30 	ldr	r3, [pc, #3376]	; 90d0 <main+0x1020>
    839c:	e5933000 	ldr	r3, [r3]
    83a0:	e1520003 	cmp	r2, r3
    83a4:	1a000028 	bne	844c <main+0x39c>
    83a8:	e59f3d20 	ldr	r3, [pc, #3360]	; 90d0 <main+0x1020>
    83ac:	e5933004 	ldr	r3, [r3, #4]
    83b0:	e58d35c4 	str	r3, [sp, #1476]	; 0x5c4
    83b4:	e59f3d14 	ldr	r3, [pc, #3348]	; 90d0 <main+0x1020>
    83b8:	e5933008 	ldr	r3, [r3, #8]
    83bc:	e58d35c0 	str	r3, [sp, #1472]	; 0x5c0
    83c0:	e59d25c4 	ldr	r2, [sp, #1476]	; 0x5c4
    83c4:	e59d35c0 	ldr	r3, [sp, #1472]	; 0x5c0
    83c8:	e1520003 	cmp	r2, r3
    83cc:	aa00001e 	bge	844c <main+0x39c>
    83d0:	e59f3cf0 	ldr	r3, [pc, #3312]	; 90c8 <main+0x1018>
    83d4:	e5933000 	ldr	r3, [r3]
    83d8:	e2433003 	sub	r3, r3, #3
    83dc:	e59f2ce4 	ldr	r2, [pc, #3300]	; 90c8 <main+0x1018>
    83e0:	e5823000 	str	r3, [r2]
    83e4:	e59d25c4 	ldr	r2, [sp, #1476]	; 0x5c4
    83e8:	e59d35c0 	ldr	r3, [sp, #1472]	; 0x5c0
    83ec:	e0633002 	rsb	r3, r3, r2
    83f0:	e58d35bc 	str	r3, [sp, #1468]	; 0x5bc
    83f4:	e59f3cd0 	ldr	r3, [pc, #3280]	; 90cc <main+0x101c>
    83f8:	e5933000 	ldr	r3, [r3]
    83fc:	e59f1cd0 	ldr	r1, [pc, #3280]	; 90d4 <main+0x1024>
    8400:	e59d25c4 	ldr	r2, [sp, #1476]	; 0x5c4
    8404:	e7812103 	str	r2, [r1, r3, lsl #2]
    8408:	e59f3cbc 	ldr	r3, [pc, #3260]	; 90cc <main+0x101c>
    840c:	e5933000 	ldr	r3, [r3]
    8410:	e2833001 	add	r3, r3, #1
    8414:	e59f1cb8 	ldr	r1, [pc, #3256]	; 90d4 <main+0x1024>
    8418:	e59d25c0 	ldr	r2, [sp, #1472]	; 0x5c0
    841c:	e7812103 	str	r2, [r1, r3, lsl #2]
    8420:	e59f3ca4 	ldr	r3, [pc, #3236]	; 90cc <main+0x101c>
    8424:	e5933000 	ldr	r3, [r3]
    8428:	e2833002 	add	r3, r3, #2
    842c:	e59f1ca0 	ldr	r1, [pc, #3232]	; 90d4 <main+0x1024>
    8430:	e59d25bc 	ldr	r2, [sp, #1468]	; 0x5bc
    8434:	e7812103 	str	r2, [r1, r3, lsl #2]
    8438:	e59f3c8c 	ldr	r3, [pc, #3212]	; 90cc <main+0x101c>
    843c:	e5933000 	ldr	r3, [r3]
    8440:	e2833003 	add	r3, r3, #3
    8444:	e59f2c80 	ldr	r2, [pc, #3200]	; 90cc <main+0x101c>
    8448:	e5823000 	str	r3, [r2]
    844c:	e59f3c74 	ldr	r3, [pc, #3188]	; 90c8 <main+0x1018>
    8450:	e5933000 	ldr	r3, [r3]
    8454:	e3530002 	cmp	r3, #2
    8458:	da000033 	ble	852c <main+0x47c>
    845c:	e59f3c68 	ldr	r3, [pc, #3176]	; 90cc <main+0x101c>
    8460:	e5933000 	ldr	r3, [r3]
    8464:	e2833003 	add	r3, r3, #3
    8468:	e3530006 	cmp	r3, #6
    846c:	ca00002e 	bgt	852c <main+0x47c>
    8470:	e59f3c58 	ldr	r3, [pc, #3160]	; 90d0 <main+0x1020>
    8474:	e5932000 	ldr	r2, [r3]
    8478:	e59f3c50 	ldr	r3, [pc, #3152]	; 90d0 <main+0x1020>
    847c:	e5933004 	ldr	r3, [r3, #4]
    8480:	e1520003 	cmp	r2, r3
    8484:	1a000028 	bne	852c <main+0x47c>
    8488:	e59f3c40 	ldr	r3, [pc, #3136]	; 90d0 <main+0x1020>
    848c:	e5933008 	ldr	r3, [r3, #8]
    8490:	e58d35b8 	str	r3, [sp, #1464]	; 0x5b8
    8494:	e59f3c34 	ldr	r3, [pc, #3124]	; 90d0 <main+0x1020>
    8498:	e5933000 	ldr	r3, [r3]
    849c:	e58d35b4 	str	r3, [sp, #1460]	; 0x5b4
    84a0:	e59d25b8 	ldr	r2, [sp, #1464]	; 0x5b8
    84a4:	e59d35b4 	ldr	r3, [sp, #1460]	; 0x5b4
    84a8:	e1520003 	cmp	r2, r3
    84ac:	aa00001e 	bge	852c <main+0x47c>
    84b0:	e59f3c10 	ldr	r3, [pc, #3088]	; 90c8 <main+0x1018>
    84b4:	e5933000 	ldr	r3, [r3]
    84b8:	e2433003 	sub	r3, r3, #3
    84bc:	e59f2c04 	ldr	r2, [pc, #3076]	; 90c8 <main+0x1018>
    84c0:	e5823000 	str	r3, [r2]
    84c4:	e59d25b8 	ldr	r2, [sp, #1464]	; 0x5b8
    84c8:	e59d35b4 	ldr	r3, [sp, #1460]	; 0x5b4
    84cc:	e0633002 	rsb	r3, r3, r2
    84d0:	e58d35b0 	str	r3, [sp, #1456]	; 0x5b0
    84d4:	e59f3bf0 	ldr	r3, [pc, #3056]	; 90cc <main+0x101c>
    84d8:	e5933000 	ldr	r3, [r3]
    84dc:	e59f1bf0 	ldr	r1, [pc, #3056]	; 90d4 <main+0x1024>
    84e0:	e59d25b8 	ldr	r2, [sp, #1464]	; 0x5b8
    84e4:	e7812103 	str	r2, [r1, r3, lsl #2]
    84e8:	e59f3bdc 	ldr	r3, [pc, #3036]	; 90cc <main+0x101c>
    84ec:	e5933000 	ldr	r3, [r3]
    84f0:	e2833001 	add	r3, r3, #1
    84f4:	e59f1bd8 	ldr	r1, [pc, #3032]	; 90d4 <main+0x1024>
    84f8:	e59d25b4 	ldr	r2, [sp, #1460]	; 0x5b4
    84fc:	e7812103 	str	r2, [r1, r3, lsl #2]
    8500:	e59f3bc4 	ldr	r3, [pc, #3012]	; 90cc <main+0x101c>
    8504:	e5933000 	ldr	r3, [r3]
    8508:	e2833002 	add	r3, r3, #2
    850c:	e59f1bc0 	ldr	r1, [pc, #3008]	; 90d4 <main+0x1024>
    8510:	e59d25b0 	ldr	r2, [sp, #1456]	; 0x5b0
    8514:	e7812103 	str	r2, [r1, r3, lsl #2]
    8518:	e59f3bac 	ldr	r3, [pc, #2988]	; 90cc <main+0x101c>
    851c:	e5933000 	ldr	r3, [r3]
    8520:	e2833003 	add	r3, r3, #3
    8524:	e59f2ba0 	ldr	r2, [pc, #2976]	; 90cc <main+0x101c>
    8528:	e5823000 	str	r3, [r2]
    852c:	e59f3b94 	ldr	r3, [pc, #2964]	; 90c8 <main+0x1018>
    8530:	e5933000 	ldr	r3, [r3]
    8534:	e3530002 	cmp	r3, #2
    8538:	da000033 	ble	860c <main+0x55c>
    853c:	e59f3b88 	ldr	r3, [pc, #2952]	; 90cc <main+0x101c>
    8540:	e5933000 	ldr	r3, [r3]
    8544:	e2833003 	add	r3, r3, #3
    8548:	e3530006 	cmp	r3, #6
    854c:	ca00002e 	bgt	860c <main+0x55c>
    8550:	e59f3b78 	ldr	r3, [pc, #2936]	; 90d0 <main+0x1020>
    8554:	e5932004 	ldr	r2, [r3, #4]
    8558:	e59f3b70 	ldr	r3, [pc, #2928]	; 90d0 <main+0x1020>
    855c:	e5933000 	ldr	r3, [r3]
    8560:	e1520003 	cmp	r2, r3
    8564:	1a000028 	bne	860c <main+0x55c>
    8568:	e59f3b60 	ldr	r3, [pc, #2912]	; 90d0 <main+0x1020>
    856c:	e5933008 	ldr	r3, [r3, #8]
    8570:	e58d35ac 	str	r3, [sp, #1452]	; 0x5ac
    8574:	e59f3b54 	ldr	r3, [pc, #2900]	; 90d0 <main+0x1020>
    8578:	e5933004 	ldr	r3, [r3, #4]
    857c:	e58d35a8 	str	r3, [sp, #1448]	; 0x5a8
    8580:	e59d25ac 	ldr	r2, [sp, #1452]	; 0x5ac
    8584:	e59d35a8 	ldr	r3, [sp, #1448]	; 0x5a8
    8588:	e1520003 	cmp	r2, r3
    858c:	aa00001e 	bge	860c <main+0x55c>
    8590:	e59f3b30 	ldr	r3, [pc, #2864]	; 90c8 <main+0x1018>
    8594:	e5933000 	ldr	r3, [r3]
    8598:	e2433003 	sub	r3, r3, #3
    859c:	e59f2b24 	ldr	r2, [pc, #2852]	; 90c8 <main+0x1018>
    85a0:	e5823000 	str	r3, [r2]
    85a4:	e59d25ac 	ldr	r2, [sp, #1452]	; 0x5ac
    85a8:	e59d35a8 	ldr	r3, [sp, #1448]	; 0x5a8
    85ac:	e0633002 	rsb	r3, r3, r2
    85b0:	e58d35a4 	str	r3, [sp, #1444]	; 0x5a4
    85b4:	e59f3b10 	ldr	r3, [pc, #2832]	; 90cc <main+0x101c>
    85b8:	e5933000 	ldr	r3, [r3]
    85bc:	e59f1b10 	ldr	r1, [pc, #2832]	; 90d4 <main+0x1024>
    85c0:	e59d25ac 	ldr	r2, [sp, #1452]	; 0x5ac
    85c4:	e7812103 	str	r2, [r1, r3, lsl #2]
    85c8:	e59f3afc 	ldr	r3, [pc, #2812]	; 90cc <main+0x101c>
    85cc:	e5933000 	ldr	r3, [r3]
    85d0:	e2833001 	add	r3, r3, #1
    85d4:	e59f1af8 	ldr	r1, [pc, #2808]	; 90d4 <main+0x1024>
    85d8:	e59d25a8 	ldr	r2, [sp, #1448]	; 0x5a8
    85dc:	e7812103 	str	r2, [r1, r3, lsl #2]
    85e0:	e59f3ae4 	ldr	r3, [pc, #2788]	; 90cc <main+0x101c>
    85e4:	e5933000 	ldr	r3, [r3]
    85e8:	e2833002 	add	r3, r3, #2
    85ec:	e59f1ae0 	ldr	r1, [pc, #2784]	; 90d4 <main+0x1024>
    85f0:	e59d25a4 	ldr	r2, [sp, #1444]	; 0x5a4
    85f4:	e7812103 	str	r2, [r1, r3, lsl #2]
    85f8:	e59f3acc 	ldr	r3, [pc, #2764]	; 90cc <main+0x101c>
    85fc:	e5933000 	ldr	r3, [r3]
    8600:	e2833003 	add	r3, r3, #3
    8604:	e59f2ac0 	ldr	r2, [pc, #2752]	; 90cc <main+0x101c>
    8608:	e5823000 	str	r3, [r2]
    860c:	e59f3ac4 	ldr	r3, [pc, #2756]	; 90d8 <main+0x1028>
    8610:	e5933000 	ldr	r3, [r3]
    8614:	e3530003 	cmp	r3, #3
    8618:	da000039 	ble	8704 <main+0x654>
    861c:	e59f3aa8 	ldr	r3, [pc, #2728]	; 90cc <main+0x101c>
    8620:	e5933000 	ldr	r3, [r3]
    8624:	e2833003 	add	r3, r3, #3
    8628:	e3530006 	cmp	r3, #6
    862c:	ca000034 	bgt	8704 <main+0x654>
    8630:	e59f3aa8 	ldr	r3, [pc, #2728]	; 90e0 <main+0x1030>
    8634:	e5932004 	ldr	r2, [r3, #4]
    8638:	e59f3aa0 	ldr	r3, [pc, #2720]	; 90e0 <main+0x1030>
    863c:	e5933008 	ldr	r3, [r3, #8]
    8640:	e1520003 	cmp	r2, r3
    8644:	1a00002e 	bne	8704 <main+0x654>
    8648:	e59f3a90 	ldr	r3, [pc, #2704]	; 90e0 <main+0x1030>
    864c:	e5932004 	ldr	r2, [r3, #4]
    8650:	e59f3a88 	ldr	r3, [pc, #2696]	; 90e0 <main+0x1030>
    8654:	e593300c 	ldr	r3, [r3, #12]
    8658:	e1520003 	cmp	r2, r3
    865c:	1a000028 	bne	8704 <main+0x654>
    8660:	e59f3a78 	ldr	r3, [pc, #2680]	; 90e0 <main+0x1030>
    8664:	e5933000 	ldr	r3, [r3]
    8668:	e58d35a0 	str	r3, [sp, #1440]	; 0x5a0
    866c:	e59f3a6c 	ldr	r3, [pc, #2668]	; 90e0 <main+0x1030>
    8670:	e5933004 	ldr	r3, [r3, #4]
    8674:	e58d359c 	str	r3, [sp, #1436]	; 0x59c
    8678:	e59d259c 	ldr	r2, [sp, #1436]	; 0x59c
    867c:	e59d35a0 	ldr	r3, [sp, #1440]	; 0x5a0
    8680:	e1520003 	cmp	r2, r3
    8684:	da00001e 	ble	8704 <main+0x654>
    8688:	e59f3a48 	ldr	r3, [pc, #2632]	; 90d8 <main+0x1028>
    868c:	e5933000 	ldr	r3, [r3]
    8690:	e2433004 	sub	r3, r3, #4
    8694:	e59f2a3c 	ldr	r2, [pc, #2620]	; 90d8 <main+0x1028>
    8698:	e5823000 	str	r3, [r2]
    869c:	e59d25a0 	ldr	r2, [sp, #1440]	; 0x5a0
    86a0:	e59d359c 	ldr	r3, [sp, #1436]	; 0x59c
    86a4:	e0823003 	add	r3, r2, r3
    86a8:	e58d3598 	str	r3, [sp, #1432]	; 0x598
    86ac:	e59f3a18 	ldr	r3, [pc, #2584]	; 90cc <main+0x101c>
    86b0:	e5933000 	ldr	r3, [r3]
    86b4:	e59f1a18 	ldr	r1, [pc, #2584]	; 90d4 <main+0x1024>
    86b8:	e59d25a0 	ldr	r2, [sp, #1440]	; 0x5a0
    86bc:	e7812103 	str	r2, [r1, r3, lsl #2]
    86c0:	e59f3a04 	ldr	r3, [pc, #2564]	; 90cc <main+0x101c>
    86c4:	e5933000 	ldr	r3, [r3]
    86c8:	e2833001 	add	r3, r3, #1
    86cc:	e59f1a00 	ldr	r1, [pc, #2560]	; 90d4 <main+0x1024>
    86d0:	e59d259c 	ldr	r2, [sp, #1436]	; 0x59c
    86d4:	e7812103 	str	r2, [r1, r3, lsl #2]
    86d8:	e59f39ec 	ldr	r3, [pc, #2540]	; 90cc <main+0x101c>
    86dc:	e5933000 	ldr	r3, [r3]
    86e0:	e2833002 	add	r3, r3, #2
    86e4:	e59f19e8 	ldr	r1, [pc, #2536]	; 90d4 <main+0x1024>
    86e8:	e59d2598 	ldr	r2, [sp, #1432]	; 0x598
    86ec:	e7812103 	str	r2, [r1, r3, lsl #2]
    86f0:	e59f39d4 	ldr	r3, [pc, #2516]	; 90cc <main+0x101c>
    86f4:	e5933000 	ldr	r3, [r3]
    86f8:	e2833003 	add	r3, r3, #3
    86fc:	e59f29c8 	ldr	r2, [pc, #2504]	; 90cc <main+0x101c>
    8700:	e5823000 	str	r3, [r2]
    8704:	e59f39cc 	ldr	r3, [pc, #2508]	; 90d8 <main+0x1028>
    8708:	e5933000 	ldr	r3, [r3]
    870c:	e3530003 	cmp	r3, #3
    8710:	da000039 	ble	87fc <main+0x74c>
    8714:	e59f39b0 	ldr	r3, [pc, #2480]	; 90cc <main+0x101c>
    8718:	e5933000 	ldr	r3, [r3]
    871c:	e2833003 	add	r3, r3, #3
    8720:	e3530006 	cmp	r3, #6
    8724:	ca000034 	bgt	87fc <main+0x74c>
    8728:	e59f39b0 	ldr	r3, [pc, #2480]	; 90e0 <main+0x1030>
    872c:	e5932004 	ldr	r2, [r3, #4]
    8730:	e59f39a8 	ldr	r3, [pc, #2472]	; 90e0 <main+0x1030>
    8734:	e593300c 	ldr	r3, [r3, #12]
    8738:	e1520003 	cmp	r2, r3
    873c:	1a00002e 	bne	87fc <main+0x74c>
    8740:	e59f3998 	ldr	r3, [pc, #2456]	; 90e0 <main+0x1030>
    8744:	e5932004 	ldr	r2, [r3, #4]
    8748:	e59f3990 	ldr	r3, [pc, #2448]	; 90e0 <main+0x1030>
    874c:	e5933008 	ldr	r3, [r3, #8]
    8750:	e1520003 	cmp	r2, r3
    8754:	1a000028 	bne	87fc <main+0x74c>
    8758:	e59f3980 	ldr	r3, [pc, #2432]	; 90e0 <main+0x1030>
    875c:	e5933000 	ldr	r3, [r3]
    8760:	e58d3594 	str	r3, [sp, #1428]	; 0x594
    8764:	e59f3974 	ldr	r3, [pc, #2420]	; 90e0 <main+0x1030>
    8768:	e5933004 	ldr	r3, [r3, #4]
    876c:	e58d3590 	str	r3, [sp, #1424]	; 0x590
    8770:	e59d2590 	ldr	r2, [sp, #1424]	; 0x590
    8774:	e59d3594 	ldr	r3, [sp, #1428]	; 0x594
    8778:	e1520003 	cmp	r2, r3
    877c:	da00001e 	ble	87fc <main+0x74c>
    8780:	e59f3950 	ldr	r3, [pc, #2384]	; 90d8 <main+0x1028>
    8784:	e5933000 	ldr	r3, [r3]
    8788:	e2433004 	sub	r3, r3, #4
    878c:	e59f2944 	ldr	r2, [pc, #2372]	; 90d8 <main+0x1028>
    8790:	e5823000 	str	r3, [r2]
    8794:	e59d2594 	ldr	r2, [sp, #1428]	; 0x594
    8798:	e59d3590 	ldr	r3, [sp, #1424]	; 0x590
    879c:	e0823003 	add	r3, r2, r3
    87a0:	e58d358c 	str	r3, [sp, #1420]	; 0x58c
    87a4:	e59f3920 	ldr	r3, [pc, #2336]	; 90cc <main+0x101c>
    87a8:	e5933000 	ldr	r3, [r3]
    87ac:	e59f1920 	ldr	r1, [pc, #2336]	; 90d4 <main+0x1024>
    87b0:	e59d2594 	ldr	r2, [sp, #1428]	; 0x594
    87b4:	e7812103 	str	r2, [r1, r3, lsl #2]
    87b8:	e59f390c 	ldr	r3, [pc, #2316]	; 90cc <main+0x101c>
    87bc:	e5933000 	ldr	r3, [r3]
    87c0:	e2833001 	add	r3, r3, #1
    87c4:	e59f1908 	ldr	r1, [pc, #2312]	; 90d4 <main+0x1024>
    87c8:	e59d2590 	ldr	r2, [sp, #1424]	; 0x590
    87cc:	e7812103 	str	r2, [r1, r3, lsl #2]
    87d0:	e59f38f4 	ldr	r3, [pc, #2292]	; 90cc <main+0x101c>
    87d4:	e5933000 	ldr	r3, [r3]
    87d8:	e2833002 	add	r3, r3, #2
    87dc:	e59f18f0 	ldr	r1, [pc, #2288]	; 90d4 <main+0x1024>
    87e0:	e59d258c 	ldr	r2, [sp, #1420]	; 0x58c
    87e4:	e7812103 	str	r2, [r1, r3, lsl #2]
    87e8:	e59f38dc 	ldr	r3, [pc, #2268]	; 90cc <main+0x101c>
    87ec:	e5933000 	ldr	r3, [r3]
    87f0:	e2833003 	add	r3, r3, #3
    87f4:	e59f28d0 	ldr	r2, [pc, #2256]	; 90cc <main+0x101c>
    87f8:	e5823000 	str	r3, [r2]
    87fc:	e59f38d4 	ldr	r3, [pc, #2260]	; 90d8 <main+0x1028>
    8800:	e5933000 	ldr	r3, [r3]
    8804:	e3530003 	cmp	r3, #3
    8808:	da000039 	ble	88f4 <main+0x844>
    880c:	e59f38b8 	ldr	r3, [pc, #2232]	; 90cc <main+0x101c>
    8810:	e5933000 	ldr	r3, [r3]
    8814:	e2833003 	add	r3, r3, #3
    8818:	e3530006 	cmp	r3, #6
    881c:	ca000034 	bgt	88f4 <main+0x844>
    8820:	e59f38b8 	ldr	r3, [pc, #2232]	; 90e0 <main+0x1030>
    8824:	e5932008 	ldr	r2, [r3, #8]
    8828:	e59f38b0 	ldr	r3, [pc, #2224]	; 90e0 <main+0x1030>
    882c:	e5933004 	ldr	r3, [r3, #4]
    8830:	e1520003 	cmp	r2, r3
    8834:	1a00002e 	bne	88f4 <main+0x844>
    8838:	e59f38a0 	ldr	r3, [pc, #2208]	; 90e0 <main+0x1030>
    883c:	e5932008 	ldr	r2, [r3, #8]
    8840:	e59f3898 	ldr	r3, [pc, #2200]	; 90e0 <main+0x1030>
    8844:	e593300c 	ldr	r3, [r3, #12]
    8848:	e1520003 	cmp	r2, r3
    884c:	1a000028 	bne	88f4 <main+0x844>
    8850:	e59f3888 	ldr	r3, [pc, #2184]	; 90e0 <main+0x1030>
    8854:	e5933000 	ldr	r3, [r3]
    8858:	e58d3588 	str	r3, [sp, #1416]	; 0x588
    885c:	e59f387c 	ldr	r3, [pc, #2172]	; 90e0 <main+0x1030>
    8860:	e5933008 	ldr	r3, [r3, #8]
    8864:	e58d3584 	str	r3, [sp, #1412]	; 0x584
    8868:	e59d2584 	ldr	r2, [sp, #1412]	; 0x584
    886c:	e59d3588 	ldr	r3, [sp, #1416]	; 0x588
    8870:	e1520003 	cmp	r2, r3
    8874:	da00001e 	ble	88f4 <main+0x844>
    8878:	e59f3858 	ldr	r3, [pc, #2136]	; 90d8 <main+0x1028>
    887c:	e5933000 	ldr	r3, [r3]
    8880:	e2433004 	sub	r3, r3, #4
    8884:	e59f284c 	ldr	r2, [pc, #2124]	; 90d8 <main+0x1028>
    8888:	e5823000 	str	r3, [r2]
    888c:	e59d2588 	ldr	r2, [sp, #1416]	; 0x588
    8890:	e59d3584 	ldr	r3, [sp, #1412]	; 0x584
    8894:	e0823003 	add	r3, r2, r3
    8898:	e58d3580 	str	r3, [sp, #1408]	; 0x580
    889c:	e59f3828 	ldr	r3, [pc, #2088]	; 90cc <main+0x101c>
    88a0:	e5933000 	ldr	r3, [r3]
    88a4:	e59f1828 	ldr	r1, [pc, #2088]	; 90d4 <main+0x1024>
    88a8:	e59d2588 	ldr	r2, [sp, #1416]	; 0x588
    88ac:	e7812103 	str	r2, [r1, r3, lsl #2]
    88b0:	e59f3814 	ldr	r3, [pc, #2068]	; 90cc <main+0x101c>
    88b4:	e5933000 	ldr	r3, [r3]
    88b8:	e2833001 	add	r3, r3, #1
    88bc:	e59f1810 	ldr	r1, [pc, #2064]	; 90d4 <main+0x1024>
    88c0:	e59d2584 	ldr	r2, [sp, #1412]	; 0x584
    88c4:	e7812103 	str	r2, [r1, r3, lsl #2]
    88c8:	e59f37fc 	ldr	r3, [pc, #2044]	; 90cc <main+0x101c>
    88cc:	e5933000 	ldr	r3, [r3]
    88d0:	e2833002 	add	r3, r3, #2
    88d4:	e59f17f8 	ldr	r1, [pc, #2040]	; 90d4 <main+0x1024>
    88d8:	e59d2580 	ldr	r2, [sp, #1408]	; 0x580
    88dc:	e7812103 	str	r2, [r1, r3, lsl #2]
    88e0:	e59f37e4 	ldr	r3, [pc, #2020]	; 90cc <main+0x101c>
    88e4:	e5933000 	ldr	r3, [r3]
    88e8:	e2833003 	add	r3, r3, #3
    88ec:	e59f27d8 	ldr	r2, [pc, #2008]	; 90cc <main+0x101c>
    88f0:	e5823000 	str	r3, [r2]
    88f4:	e59f37dc 	ldr	r3, [pc, #2012]	; 90d8 <main+0x1028>
    88f8:	e5933000 	ldr	r3, [r3]
    88fc:	e3530003 	cmp	r3, #3
    8900:	da000039 	ble	89ec <main+0x93c>
    8904:	e59f37c0 	ldr	r3, [pc, #1984]	; 90cc <main+0x101c>
    8908:	e5933000 	ldr	r3, [r3]
    890c:	e2833003 	add	r3, r3, #3
    8910:	e3530006 	cmp	r3, #6
    8914:	ca000034 	bgt	89ec <main+0x93c>
    8918:	e59f37c0 	ldr	r3, [pc, #1984]	; 90e0 <main+0x1030>
    891c:	e5932008 	ldr	r2, [r3, #8]
    8920:	e59f37b8 	ldr	r3, [pc, #1976]	; 90e0 <main+0x1030>
    8924:	e593300c 	ldr	r3, [r3, #12]
    8928:	e1520003 	cmp	r2, r3
    892c:	1a00002e 	bne	89ec <main+0x93c>
    8930:	e59f37a8 	ldr	r3, [pc, #1960]	; 90e0 <main+0x1030>
    8934:	e5932008 	ldr	r2, [r3, #8]
    8938:	e59f37a0 	ldr	r3, [pc, #1952]	; 90e0 <main+0x1030>
    893c:	e5933004 	ldr	r3, [r3, #4]
    8940:	e1520003 	cmp	r2, r3
    8944:	1a000028 	bne	89ec <main+0x93c>
    8948:	e59f3790 	ldr	r3, [pc, #1936]	; 90e0 <main+0x1030>
    894c:	e5933000 	ldr	r3, [r3]
    8950:	e58d357c 	str	r3, [sp, #1404]	; 0x57c
    8954:	e59f3784 	ldr	r3, [pc, #1924]	; 90e0 <main+0x1030>
    8958:	e5933008 	ldr	r3, [r3, #8]
    895c:	e58d3578 	str	r3, [sp, #1400]	; 0x578
    8960:	e59d2578 	ldr	r2, [sp, #1400]	; 0x578
    8964:	e59d357c 	ldr	r3, [sp, #1404]	; 0x57c
    8968:	e1520003 	cmp	r2, r3
    896c:	da00001e 	ble	89ec <main+0x93c>
    8970:	e59f3760 	ldr	r3, [pc, #1888]	; 90d8 <main+0x1028>
    8974:	e5933000 	ldr	r3, [r3]
    8978:	e2433004 	sub	r3, r3, #4
    897c:	e59f2754 	ldr	r2, [pc, #1876]	; 90d8 <main+0x1028>
    8980:	e5823000 	str	r3, [r2]
    8984:	e59d257c 	ldr	r2, [sp, #1404]	; 0x57c
    8988:	e59d3578 	ldr	r3, [sp, #1400]	; 0x578
    898c:	e0823003 	add	r3, r2, r3
    8990:	e58d3574 	str	r3, [sp, #1396]	; 0x574
    8994:	e59f3730 	ldr	r3, [pc, #1840]	; 90cc <main+0x101c>
    8998:	e5933000 	ldr	r3, [r3]
    899c:	e59f1730 	ldr	r1, [pc, #1840]	; 90d4 <main+0x1024>
    89a0:	e59d257c 	ldr	r2, [sp, #1404]	; 0x57c
    89a4:	e7812103 	str	r2, [r1, r3, lsl #2]
    89a8:	e59f371c 	ldr	r3, [pc, #1820]	; 90cc <main+0x101c>
    89ac:	e5933000 	ldr	r3, [r3]
    89b0:	e2833001 	add	r3, r3, #1
    89b4:	e59f1718 	ldr	r1, [pc, #1816]	; 90d4 <main+0x1024>
    89b8:	e59d2578 	ldr	r2, [sp, #1400]	; 0x578
    89bc:	e7812103 	str	r2, [r1, r3, lsl #2]
    89c0:	e59f3704 	ldr	r3, [pc, #1796]	; 90cc <main+0x101c>
    89c4:	e5933000 	ldr	r3, [r3]
    89c8:	e2833002 	add	r3, r3, #2
    89cc:	e59f1700 	ldr	r1, [pc, #1792]	; 90d4 <main+0x1024>
    89d0:	e59d2574 	ldr	r2, [sp, #1396]	; 0x574
    89d4:	e7812103 	str	r2, [r1, r3, lsl #2]
    89d8:	e59f36ec 	ldr	r3, [pc, #1772]	; 90cc <main+0x101c>
    89dc:	e5933000 	ldr	r3, [r3]
    89e0:	e2833003 	add	r3, r3, #3
    89e4:	e59f26e0 	ldr	r2, [pc, #1760]	; 90cc <main+0x101c>
    89e8:	e5823000 	str	r3, [r2]
    89ec:	e59f36e4 	ldr	r3, [pc, #1764]	; 90d8 <main+0x1028>
    89f0:	e5933000 	ldr	r3, [r3]
    89f4:	e3530003 	cmp	r3, #3
    89f8:	da000039 	ble	8ae4 <main+0xa34>
    89fc:	e59f36c8 	ldr	r3, [pc, #1736]	; 90cc <main+0x101c>
    8a00:	e5933000 	ldr	r3, [r3]
    8a04:	e2833003 	add	r3, r3, #3
    8a08:	e3530006 	cmp	r3, #6
    8a0c:	ca000034 	bgt	8ae4 <main+0xa34>
    8a10:	e59f36c8 	ldr	r3, [pc, #1736]	; 90e0 <main+0x1030>
    8a14:	e593200c 	ldr	r2, [r3, #12]
    8a18:	e59f36c0 	ldr	r3, [pc, #1728]	; 90e0 <main+0x1030>
    8a1c:	e5933004 	ldr	r3, [r3, #4]
    8a20:	e1520003 	cmp	r2, r3
    8a24:	1a00002e 	bne	8ae4 <main+0xa34>
    8a28:	e59f36b0 	ldr	r3, [pc, #1712]	; 90e0 <main+0x1030>
    8a2c:	e593200c 	ldr	r2, [r3, #12]
    8a30:	e59f36a8 	ldr	r3, [pc, #1704]	; 90e0 <main+0x1030>
    8a34:	e5933008 	ldr	r3, [r3, #8]
    8a38:	e1520003 	cmp	r2, r3
    8a3c:	1a000028 	bne	8ae4 <main+0xa34>
    8a40:	e59f3698 	ldr	r3, [pc, #1688]	; 90e0 <main+0x1030>
    8a44:	e5933000 	ldr	r3, [r3]
    8a48:	e58d3570 	str	r3, [sp, #1392]	; 0x570
    8a4c:	e59f368c 	ldr	r3, [pc, #1676]	; 90e0 <main+0x1030>
    8a50:	e593300c 	ldr	r3, [r3, #12]
    8a54:	e58d356c 	str	r3, [sp, #1388]	; 0x56c
    8a58:	e59d256c 	ldr	r2, [sp, #1388]	; 0x56c
    8a5c:	e59d3570 	ldr	r3, [sp, #1392]	; 0x570
    8a60:	e1520003 	cmp	r2, r3
    8a64:	da00001e 	ble	8ae4 <main+0xa34>
    8a68:	e59f3668 	ldr	r3, [pc, #1640]	; 90d8 <main+0x1028>
    8a6c:	e5933000 	ldr	r3, [r3]
    8a70:	e2433004 	sub	r3, r3, #4
    8a74:	e59f265c 	ldr	r2, [pc, #1628]	; 90d8 <main+0x1028>
    8a78:	e5823000 	str	r3, [r2]
    8a7c:	e59d2570 	ldr	r2, [sp, #1392]	; 0x570
    8a80:	e59d356c 	ldr	r3, [sp, #1388]	; 0x56c
    8a84:	e0823003 	add	r3, r2, r3
    8a88:	e58d3568 	str	r3, [sp, #1384]	; 0x568
    8a8c:	e59f3638 	ldr	r3, [pc, #1592]	; 90cc <main+0x101c>
    8a90:	e5933000 	ldr	r3, [r3]
    8a94:	e59f1638 	ldr	r1, [pc, #1592]	; 90d4 <main+0x1024>
    8a98:	e59d2570 	ldr	r2, [sp, #1392]	; 0x570
    8a9c:	e7812103 	str	r2, [r1, r3, lsl #2]
    8aa0:	e59f3624 	ldr	r3, [pc, #1572]	; 90cc <main+0x101c>
    8aa4:	e5933000 	ldr	r3, [r3]
    8aa8:	e2833001 	add	r3, r3, #1
    8aac:	e59f1620 	ldr	r1, [pc, #1568]	; 90d4 <main+0x1024>
    8ab0:	e59d256c 	ldr	r2, [sp, #1388]	; 0x56c
    8ab4:	e7812103 	str	r2, [r1, r3, lsl #2]
    8ab8:	e59f360c 	ldr	r3, [pc, #1548]	; 90cc <main+0x101c>
    8abc:	e5933000 	ldr	r3, [r3]
    8ac0:	e2833002 	add	r3, r3, #2
    8ac4:	e59f1608 	ldr	r1, [pc, #1544]	; 90d4 <main+0x1024>
    8ac8:	e59d2568 	ldr	r2, [sp, #1384]	; 0x568
    8acc:	e7812103 	str	r2, [r1, r3, lsl #2]
    8ad0:	e59f35f4 	ldr	r3, [pc, #1524]	; 90cc <main+0x101c>
    8ad4:	e5933000 	ldr	r3, [r3]
    8ad8:	e2833003 	add	r3, r3, #3
    8adc:	e59f25e8 	ldr	r2, [pc, #1512]	; 90cc <main+0x101c>
    8ae0:	e5823000 	str	r3, [r2]
    8ae4:	e59f35ec 	ldr	r3, [pc, #1516]	; 90d8 <main+0x1028>
    8ae8:	e5933000 	ldr	r3, [r3]
    8aec:	e3530003 	cmp	r3, #3
    8af0:	da000039 	ble	8bdc <main+0xb2c>
    8af4:	e59f35d0 	ldr	r3, [pc, #1488]	; 90cc <main+0x101c>
    8af8:	e5933000 	ldr	r3, [r3]
    8afc:	e2833003 	add	r3, r3, #3
    8b00:	e3530006 	cmp	r3, #6
    8b04:	ca000034 	bgt	8bdc <main+0xb2c>
    8b08:	e59f35d0 	ldr	r3, [pc, #1488]	; 90e0 <main+0x1030>
    8b0c:	e593200c 	ldr	r2, [r3, #12]
    8b10:	e59f35c8 	ldr	r3, [pc, #1480]	; 90e0 <main+0x1030>
    8b14:	e5933008 	ldr	r3, [r3, #8]
    8b18:	e1520003 	cmp	r2, r3
    8b1c:	1a00002e 	bne	8bdc <main+0xb2c>
    8b20:	e59f35b8 	ldr	r3, [pc, #1464]	; 90e0 <main+0x1030>
    8b24:	e593200c 	ldr	r2, [r3, #12]
    8b28:	e59f35b0 	ldr	r3, [pc, #1456]	; 90e0 <main+0x1030>
    8b2c:	e5933004 	ldr	r3, [r3, #4]
    8b30:	e1520003 	cmp	r2, r3
    8b34:	1a000028 	bne	8bdc <main+0xb2c>
    8b38:	e59f35a0 	ldr	r3, [pc, #1440]	; 90e0 <main+0x1030>
    8b3c:	e5933000 	ldr	r3, [r3]
    8b40:	e58d3564 	str	r3, [sp, #1380]	; 0x564
    8b44:	e59f3594 	ldr	r3, [pc, #1428]	; 90e0 <main+0x1030>
    8b48:	e593300c 	ldr	r3, [r3, #12]
    8b4c:	e58d3560 	str	r3, [sp, #1376]	; 0x560
    8b50:	e59d2560 	ldr	r2, [sp, #1376]	; 0x560
    8b54:	e59d3564 	ldr	r3, [sp, #1380]	; 0x564
    8b58:	e1520003 	cmp	r2, r3
    8b5c:	da00001e 	ble	8bdc <main+0xb2c>
    8b60:	e59f3570 	ldr	r3, [pc, #1392]	; 90d8 <main+0x1028>
    8b64:	e5933000 	ldr	r3, [r3]
    8b68:	e2433004 	sub	r3, r3, #4
    8b6c:	e59f2564 	ldr	r2, [pc, #1380]	; 90d8 <main+0x1028>
    8b70:	e5823000 	str	r3, [r2]
    8b74:	e59d2564 	ldr	r2, [sp, #1380]	; 0x564
    8b78:	e59d3560 	ldr	r3, [sp, #1376]	; 0x560
    8b7c:	e0823003 	add	r3, r2, r3
    8b80:	e58d355c 	str	r3, [sp, #1372]	; 0x55c
    8b84:	e59f3540 	ldr	r3, [pc, #1344]	; 90cc <main+0x101c>
    8b88:	e5933000 	ldr	r3, [r3]
    8b8c:	e59f1540 	ldr	r1, [pc, #1344]	; 90d4 <main+0x1024>
    8b90:	e59d2564 	ldr	r2, [sp, #1380]	; 0x564
    8b94:	e7812103 	str	r2, [r1, r3, lsl #2]
    8b98:	e59f352c 	ldr	r3, [pc, #1324]	; 90cc <main+0x101c>
    8b9c:	e5933000 	ldr	r3, [r3]
    8ba0:	e2833001 	add	r3, r3, #1
    8ba4:	e59f1528 	ldr	r1, [pc, #1320]	; 90d4 <main+0x1024>
    8ba8:	e59d2560 	ldr	r2, [sp, #1376]	; 0x560
    8bac:	e7812103 	str	r2, [r1, r3, lsl #2]
    8bb0:	e59f3514 	ldr	r3, [pc, #1300]	; 90cc <main+0x101c>
    8bb4:	e5933000 	ldr	r3, [r3]
    8bb8:	e2833002 	add	r3, r3, #2
    8bbc:	e59f1510 	ldr	r1, [pc, #1296]	; 90d4 <main+0x1024>
    8bc0:	e59d255c 	ldr	r2, [sp, #1372]	; 0x55c
    8bc4:	e7812103 	str	r2, [r1, r3, lsl #2]
    8bc8:	e59f34fc 	ldr	r3, [pc, #1276]	; 90cc <main+0x101c>
    8bcc:	e5933000 	ldr	r3, [r3]
    8bd0:	e2833003 	add	r3, r3, #3
    8bd4:	e59f24f0 	ldr	r2, [pc, #1264]	; 90cc <main+0x101c>
    8bd8:	e5823000 	str	r3, [r2]
    8bdc:	e59f34f4 	ldr	r3, [pc, #1268]	; 90d8 <main+0x1028>
    8be0:	e5933000 	ldr	r3, [r3]
    8be4:	e3530003 	cmp	r3, #3
    8be8:	da000039 	ble	8cd4 <main+0xc24>
    8bec:	e59f34d8 	ldr	r3, [pc, #1240]	; 90cc <main+0x101c>
    8bf0:	e5933000 	ldr	r3, [r3]
    8bf4:	e2833003 	add	r3, r3, #3
    8bf8:	e3530006 	cmp	r3, #6
    8bfc:	ca000034 	bgt	8cd4 <main+0xc24>
    8c00:	e59f34d8 	ldr	r3, [pc, #1240]	; 90e0 <main+0x1030>
    8c04:	e5932000 	ldr	r2, [r3]
    8c08:	e59f34d0 	ldr	r3, [pc, #1232]	; 90e0 <main+0x1030>
    8c0c:	e5933008 	ldr	r3, [r3, #8]
    8c10:	e1520003 	cmp	r2, r3
    8c14:	1a00002e 	bne	8cd4 <main+0xc24>
    8c18:	e59f34c0 	ldr	r3, [pc, #1216]	; 90e0 <main+0x1030>
    8c1c:	e5932000 	ldr	r2, [r3]
    8c20:	e59f34b8 	ldr	r3, [pc, #1208]	; 90e0 <main+0x1030>
    8c24:	e593300c 	ldr	r3, [r3, #12]
    8c28:	e1520003 	cmp	r2, r3
    8c2c:	1a000028 	bne	8cd4 <main+0xc24>
    8c30:	e59f34a8 	ldr	r3, [pc, #1192]	; 90e0 <main+0x1030>
    8c34:	e5933004 	ldr	r3, [r3, #4]
    8c38:	e58d3558 	str	r3, [sp, #1368]	; 0x558
    8c3c:	e59f349c 	ldr	r3, [pc, #1180]	; 90e0 <main+0x1030>
    8c40:	e5933000 	ldr	r3, [r3]
    8c44:	e58d3554 	str	r3, [sp, #1364]	; 0x554
    8c48:	e59d2554 	ldr	r2, [sp, #1364]	; 0x554
    8c4c:	e59d3558 	ldr	r3, [sp, #1368]	; 0x558
    8c50:	e1520003 	cmp	r2, r3
    8c54:	da00001e 	ble	8cd4 <main+0xc24>
    8c58:	e59f3478 	ldr	r3, [pc, #1144]	; 90d8 <main+0x1028>
    8c5c:	e5933000 	ldr	r3, [r3]
    8c60:	e2433004 	sub	r3, r3, #4
    8c64:	e59f246c 	ldr	r2, [pc, #1132]	; 90d8 <main+0x1028>
    8c68:	e5823000 	str	r3, [r2]
    8c6c:	e59d2558 	ldr	r2, [sp, #1368]	; 0x558
    8c70:	e59d3554 	ldr	r3, [sp, #1364]	; 0x554
    8c74:	e0823003 	add	r3, r2, r3
    8c78:	e58d3550 	str	r3, [sp, #1360]	; 0x550
    8c7c:	e59f3448 	ldr	r3, [pc, #1096]	; 90cc <main+0x101c>
    8c80:	e5933000 	ldr	r3, [r3]
    8c84:	e59f1448 	ldr	r1, [pc, #1096]	; 90d4 <main+0x1024>
    8c88:	e59d2558 	ldr	r2, [sp, #1368]	; 0x558
    8c8c:	e7812103 	str	r2, [r1, r3, lsl #2]
    8c90:	e59f3434 	ldr	r3, [pc, #1076]	; 90cc <main+0x101c>
    8c94:	e5933000 	ldr	r3, [r3]
    8c98:	e2833001 	add	r3, r3, #1
    8c9c:	e59f1430 	ldr	r1, [pc, #1072]	; 90d4 <main+0x1024>
    8ca0:	e59d2554 	ldr	r2, [sp, #1364]	; 0x554
    8ca4:	e7812103 	str	r2, [r1, r3, lsl #2]
    8ca8:	e59f341c 	ldr	r3, [pc, #1052]	; 90cc <main+0x101c>
    8cac:	e5933000 	ldr	r3, [r3]
    8cb0:	e2833002 	add	r3, r3, #2
    8cb4:	e59f1418 	ldr	r1, [pc, #1048]	; 90d4 <main+0x1024>
    8cb8:	e59d2550 	ldr	r2, [sp, #1360]	; 0x550
    8cbc:	e7812103 	str	r2, [r1, r3, lsl #2]
    8cc0:	e59f3404 	ldr	r3, [pc, #1028]	; 90cc <main+0x101c>
    8cc4:	e5933000 	ldr	r3, [r3]
    8cc8:	e2833003 	add	r3, r3, #3
    8ccc:	e59f23f8 	ldr	r2, [pc, #1016]	; 90cc <main+0x101c>
    8cd0:	e5823000 	str	r3, [r2]
    8cd4:	e59f33fc 	ldr	r3, [pc, #1020]	; 90d8 <main+0x1028>
    8cd8:	e5933000 	ldr	r3, [r3]
    8cdc:	e3530003 	cmp	r3, #3
    8ce0:	da000039 	ble	8dcc <main+0xd1c>
    8ce4:	e59f33e0 	ldr	r3, [pc, #992]	; 90cc <main+0x101c>
    8ce8:	e5933000 	ldr	r3, [r3]
    8cec:	e2833003 	add	r3, r3, #3
    8cf0:	e3530006 	cmp	r3, #6
    8cf4:	ca000034 	bgt	8dcc <main+0xd1c>
    8cf8:	e59f33e0 	ldr	r3, [pc, #992]	; 90e0 <main+0x1030>
    8cfc:	e5932000 	ldr	r2, [r3]
    8d00:	e59f33d8 	ldr	r3, [pc, #984]	; 90e0 <main+0x1030>
    8d04:	e593300c 	ldr	r3, [r3, #12]
    8d08:	e1520003 	cmp	r2, r3
    8d0c:	1a00002e 	bne	8dcc <main+0xd1c>
    8d10:	e59f33c8 	ldr	r3, [pc, #968]	; 90e0 <main+0x1030>
    8d14:	e5932000 	ldr	r2, [r3]
    8d18:	e59f33c0 	ldr	r3, [pc, #960]	; 90e0 <main+0x1030>
    8d1c:	e5933008 	ldr	r3, [r3, #8]
    8d20:	e1520003 	cmp	r2, r3
    8d24:	1a000028 	bne	8dcc <main+0xd1c>
    8d28:	e59f33b0 	ldr	r3, [pc, #944]	; 90e0 <main+0x1030>
    8d2c:	e5933004 	ldr	r3, [r3, #4]
    8d30:	e58d354c 	str	r3, [sp, #1356]	; 0x54c
    8d34:	e59f33a4 	ldr	r3, [pc, #932]	; 90e0 <main+0x1030>
    8d38:	e5933000 	ldr	r3, [r3]
    8d3c:	e58d3548 	str	r3, [sp, #1352]	; 0x548
    8d40:	e59d2548 	ldr	r2, [sp, #1352]	; 0x548
    8d44:	e59d354c 	ldr	r3, [sp, #1356]	; 0x54c
    8d48:	e1520003 	cmp	r2, r3
    8d4c:	da00001e 	ble	8dcc <main+0xd1c>
    8d50:	e59f3380 	ldr	r3, [pc, #896]	; 90d8 <main+0x1028>
    8d54:	e5933000 	ldr	r3, [r3]
    8d58:	e2433004 	sub	r3, r3, #4
    8d5c:	e59f2374 	ldr	r2, [pc, #884]	; 90d8 <main+0x1028>
    8d60:	e5823000 	str	r3, [r2]
    8d64:	e59d254c 	ldr	r2, [sp, #1356]	; 0x54c
    8d68:	e59d3548 	ldr	r3, [sp, #1352]	; 0x548
    8d6c:	e0823003 	add	r3, r2, r3
    8d70:	e58d3544 	str	r3, [sp, #1348]	; 0x544
    8d74:	e59f3350 	ldr	r3, [pc, #848]	; 90cc <main+0x101c>
    8d78:	e5933000 	ldr	r3, [r3]
    8d7c:	e59f1350 	ldr	r1, [pc, #848]	; 90d4 <main+0x1024>
    8d80:	e59d254c 	ldr	r2, [sp, #1356]	; 0x54c
    8d84:	e7812103 	str	r2, [r1, r3, lsl #2]
    8d88:	e59f333c 	ldr	r3, [pc, #828]	; 90cc <main+0x101c>
    8d8c:	e5933000 	ldr	r3, [r3]
    8d90:	e2833001 	add	r3, r3, #1
    8d94:	e59f1338 	ldr	r1, [pc, #824]	; 90d4 <main+0x1024>
    8d98:	e59d2548 	ldr	r2, [sp, #1352]	; 0x548
    8d9c:	e7812103 	str	r2, [r1, r3, lsl #2]
    8da0:	e59f3324 	ldr	r3, [pc, #804]	; 90cc <main+0x101c>
    8da4:	e5933000 	ldr	r3, [r3]
    8da8:	e2833002 	add	r3, r3, #2
    8dac:	e59f1320 	ldr	r1, [pc, #800]	; 90d4 <main+0x1024>
    8db0:	e59d2544 	ldr	r2, [sp, #1348]	; 0x544
    8db4:	e7812103 	str	r2, [r1, r3, lsl #2]
    8db8:	e59f330c 	ldr	r3, [pc, #780]	; 90cc <main+0x101c>
    8dbc:	e5933000 	ldr	r3, [r3]
    8dc0:	e2833003 	add	r3, r3, #3
    8dc4:	e59f2300 	ldr	r2, [pc, #768]	; 90cc <main+0x101c>
    8dc8:	e5823000 	str	r3, [r2]
    8dcc:	e59f3304 	ldr	r3, [pc, #772]	; 90d8 <main+0x1028>
    8dd0:	e5933000 	ldr	r3, [r3]
    8dd4:	e3530003 	cmp	r3, #3
    8dd8:	da000039 	ble	8ec4 <main+0xe14>
    8ddc:	e59f32e8 	ldr	r3, [pc, #744]	; 90cc <main+0x101c>
    8de0:	e5933000 	ldr	r3, [r3]
    8de4:	e2833003 	add	r3, r3, #3
    8de8:	e3530006 	cmp	r3, #6
    8dec:	ca000034 	bgt	8ec4 <main+0xe14>
    8df0:	e59f32e8 	ldr	r3, [pc, #744]	; 90e0 <main+0x1030>
    8df4:	e5932008 	ldr	r2, [r3, #8]
    8df8:	e59f32e0 	ldr	r3, [pc, #736]	; 90e0 <main+0x1030>
    8dfc:	e5933000 	ldr	r3, [r3]
    8e00:	e1520003 	cmp	r2, r3
    8e04:	1a00002e 	bne	8ec4 <main+0xe14>
    8e08:	e59f32d0 	ldr	r3, [pc, #720]	; 90e0 <main+0x1030>
    8e0c:	e5932008 	ldr	r2, [r3, #8]
    8e10:	e59f32c8 	ldr	r3, [pc, #712]	; 90e0 <main+0x1030>
    8e14:	e593300c 	ldr	r3, [r3, #12]
    8e18:	e1520003 	cmp	r2, r3
    8e1c:	1a000028 	bne	8ec4 <main+0xe14>
    8e20:	e59f32b8 	ldr	r3, [pc, #696]	; 90e0 <main+0x1030>
    8e24:	e5933004 	ldr	r3, [r3, #4]
    8e28:	e58d3540 	str	r3, [sp, #1344]	; 0x540
    8e2c:	e59f32ac 	ldr	r3, [pc, #684]	; 90e0 <main+0x1030>
    8e30:	e5933008 	ldr	r3, [r3, #8]
    8e34:	e58d353c 	str	r3, [sp, #1340]	; 0x53c
    8e38:	e59d253c 	ldr	r2, [sp, #1340]	; 0x53c
    8e3c:	e59d3540 	ldr	r3, [sp, #1344]	; 0x540
    8e40:	e1520003 	cmp	r2, r3
    8e44:	da00001e 	ble	8ec4 <main+0xe14>
    8e48:	e59f3288 	ldr	r3, [pc, #648]	; 90d8 <main+0x1028>
    8e4c:	e5933000 	ldr	r3, [r3]
    8e50:	e2433004 	sub	r3, r3, #4
    8e54:	e59f227c 	ldr	r2, [pc, #636]	; 90d8 <main+0x1028>
    8e58:	e5823000 	str	r3, [r2]
    8e5c:	e59d2540 	ldr	r2, [sp, #1344]	; 0x540
    8e60:	e59d353c 	ldr	r3, [sp, #1340]	; 0x53c
    8e64:	e0823003 	add	r3, r2, r3
    8e68:	e58d3538 	str	r3, [sp, #1336]	; 0x538
    8e6c:	e59f3258 	ldr	r3, [pc, #600]	; 90cc <main+0x101c>
    8e70:	e5933000 	ldr	r3, [r3]
    8e74:	e59f1258 	ldr	r1, [pc, #600]	; 90d4 <main+0x1024>
    8e78:	e59d2540 	ldr	r2, [sp, #1344]	; 0x540
    8e7c:	e7812103 	str	r2, [r1, r3, lsl #2]
    8e80:	e59f3244 	ldr	r3, [pc, #580]	; 90cc <main+0x101c>
    8e84:	e5933000 	ldr	r3, [r3]
    8e88:	e2833001 	add	r3, r3, #1
    8e8c:	e59f1240 	ldr	r1, [pc, #576]	; 90d4 <main+0x1024>
    8e90:	e59d253c 	ldr	r2, [sp, #1340]	; 0x53c
    8e94:	e7812103 	str	r2, [r1, r3, lsl #2]
    8e98:	e59f322c 	ldr	r3, [pc, #556]	; 90cc <main+0x101c>
    8e9c:	e5933000 	ldr	r3, [r3]
    8ea0:	e2833002 	add	r3, r3, #2
    8ea4:	e59f1228 	ldr	r1, [pc, #552]	; 90d4 <main+0x1024>
    8ea8:	e59d2538 	ldr	r2, [sp, #1336]	; 0x538
    8eac:	e7812103 	str	r2, [r1, r3, lsl #2]
    8eb0:	e59f3214 	ldr	r3, [pc, #532]	; 90cc <main+0x101c>
    8eb4:	e5933000 	ldr	r3, [r3]
    8eb8:	e2833003 	add	r3, r3, #3
    8ebc:	e59f2208 	ldr	r2, [pc, #520]	; 90cc <main+0x101c>
    8ec0:	e5823000 	str	r3, [r2]
    8ec4:	e59f320c 	ldr	r3, [pc, #524]	; 90d8 <main+0x1028>
    8ec8:	e5933000 	ldr	r3, [r3]
    8ecc:	e3530003 	cmp	r3, #3
    8ed0:	da000039 	ble	8fbc <main+0xf0c>
    8ed4:	e59f31f0 	ldr	r3, [pc, #496]	; 90cc <main+0x101c>
    8ed8:	e5933000 	ldr	r3, [r3]
    8edc:	e2833003 	add	r3, r3, #3
    8ee0:	e3530006 	cmp	r3, #6
    8ee4:	ca000034 	bgt	8fbc <main+0xf0c>
    8ee8:	e59f31f0 	ldr	r3, [pc, #496]	; 90e0 <main+0x1030>
    8eec:	e5932008 	ldr	r2, [r3, #8]
    8ef0:	e59f31e8 	ldr	r3, [pc, #488]	; 90e0 <main+0x1030>
    8ef4:	e593300c 	ldr	r3, [r3, #12]
    8ef8:	e1520003 	cmp	r2, r3
    8efc:	1a00002e 	bne	8fbc <main+0xf0c>
    8f00:	e59f31d8 	ldr	r3, [pc, #472]	; 90e0 <main+0x1030>
    8f04:	e5932008 	ldr	r2, [r3, #8]
    8f08:	e59f31d0 	ldr	r3, [pc, #464]	; 90e0 <main+0x1030>
    8f0c:	e5933000 	ldr	r3, [r3]
    8f10:	e1520003 	cmp	r2, r3
    8f14:	1a000028 	bne	8fbc <main+0xf0c>
    8f18:	e59f31c0 	ldr	r3, [pc, #448]	; 90e0 <main+0x1030>
    8f1c:	e5933004 	ldr	r3, [r3, #4]
    8f20:	e58d3534 	str	r3, [sp, #1332]	; 0x534
    8f24:	e59f31b4 	ldr	r3, [pc, #436]	; 90e0 <main+0x1030>
    8f28:	e5933008 	ldr	r3, [r3, #8]
    8f2c:	e58d3530 	str	r3, [sp, #1328]	; 0x530
    8f30:	e59d2530 	ldr	r2, [sp, #1328]	; 0x530
    8f34:	e59d3534 	ldr	r3, [sp, #1332]	; 0x534
    8f38:	e1520003 	cmp	r2, r3
    8f3c:	da00001e 	ble	8fbc <main+0xf0c>
    8f40:	e59f3190 	ldr	r3, [pc, #400]	; 90d8 <main+0x1028>
    8f44:	e5933000 	ldr	r3, [r3]
    8f48:	e2433004 	sub	r3, r3, #4
    8f4c:	e59f2184 	ldr	r2, [pc, #388]	; 90d8 <main+0x1028>
    8f50:	e5823000 	str	r3, [r2]
    8f54:	e59d2534 	ldr	r2, [sp, #1332]	; 0x534
    8f58:	e59d3530 	ldr	r3, [sp, #1328]	; 0x530
    8f5c:	e0823003 	add	r3, r2, r3
    8f60:	e58d352c 	str	r3, [sp, #1324]	; 0x52c
    8f64:	e59f3160 	ldr	r3, [pc, #352]	; 90cc <main+0x101c>
    8f68:	e5933000 	ldr	r3, [r3]
    8f6c:	e59f1160 	ldr	r1, [pc, #352]	; 90d4 <main+0x1024>
    8f70:	e59d2534 	ldr	r2, [sp, #1332]	; 0x534
    8f74:	e7812103 	str	r2, [r1, r3, lsl #2]
    8f78:	e59f314c 	ldr	r3, [pc, #332]	; 90cc <main+0x101c>
    8f7c:	e5933000 	ldr	r3, [r3]
    8f80:	e2833001 	add	r3, r3, #1
    8f84:	e59f1148 	ldr	r1, [pc, #328]	; 90d4 <main+0x1024>
    8f88:	e59d2530 	ldr	r2, [sp, #1328]	; 0x530
    8f8c:	e7812103 	str	r2, [r1, r3, lsl #2]
    8f90:	e59f3134 	ldr	r3, [pc, #308]	; 90cc <main+0x101c>
    8f94:	e5933000 	ldr	r3, [r3]
    8f98:	e2833002 	add	r3, r3, #2
    8f9c:	e59f1130 	ldr	r1, [pc, #304]	; 90d4 <main+0x1024>
    8fa0:	e59d252c 	ldr	r2, [sp, #1324]	; 0x52c
    8fa4:	e7812103 	str	r2, [r1, r3, lsl #2]
    8fa8:	e59f311c 	ldr	r3, [pc, #284]	; 90cc <main+0x101c>
    8fac:	e5933000 	ldr	r3, [r3]
    8fb0:	e2833003 	add	r3, r3, #3
    8fb4:	e59f2110 	ldr	r2, [pc, #272]	; 90cc <main+0x101c>
    8fb8:	e5823000 	str	r3, [r2]
    8fbc:	e59f3114 	ldr	r3, [pc, #276]	; 90d8 <main+0x1028>
    8fc0:	e5933000 	ldr	r3, [r3]
    8fc4:	e3530003 	cmp	r3, #3
    8fc8:	da000039 	ble	90b4 <main+0x1004>
    8fcc:	e59f30f8 	ldr	r3, [pc, #248]	; 90cc <main+0x101c>
    8fd0:	e5933000 	ldr	r3, [r3]
    8fd4:	e2833003 	add	r3, r3, #3
    8fd8:	e3530006 	cmp	r3, #6
    8fdc:	ca000034 	bgt	90b4 <main+0x1004>
    8fe0:	e59f30f8 	ldr	r3, [pc, #248]	; 90e0 <main+0x1030>
    8fe4:	e593200c 	ldr	r2, [r3, #12]
    8fe8:	e59f30f0 	ldr	r3, [pc, #240]	; 90e0 <main+0x1030>
    8fec:	e5933000 	ldr	r3, [r3]
    8ff0:	e1520003 	cmp	r2, r3
    8ff4:	1a00002e 	bne	90b4 <main+0x1004>
    8ff8:	e59f30e0 	ldr	r3, [pc, #224]	; 90e0 <main+0x1030>
    8ffc:	e593200c 	ldr	r2, [r3, #12]
    9000:	e59f30d8 	ldr	r3, [pc, #216]	; 90e0 <main+0x1030>
    9004:	e5933008 	ldr	r3, [r3, #8]
    9008:	e1520003 	cmp	r2, r3
    900c:	1a000028 	bne	90b4 <main+0x1004>
    9010:	e59f30c8 	ldr	r3, [pc, #200]	; 90e0 <main+0x1030>
    9014:	e5933004 	ldr	r3, [r3, #4]
    9018:	e58d3528 	str	r3, [sp, #1320]	; 0x528
    901c:	e59f30bc 	ldr	r3, [pc, #188]	; 90e0 <main+0x1030>
    9020:	e593300c 	ldr	r3, [r3, #12]
    9024:	e58d3524 	str	r3, [sp, #1316]	; 0x524
    9028:	e59d2524 	ldr	r2, [sp, #1316]	; 0x524
    902c:	e59d3528 	ldr	r3, [sp, #1320]	; 0x528
    9030:	e1520003 	cmp	r2, r3
    9034:	da00001e 	ble	90b4 <main+0x1004>
    9038:	e59f3098 	ldr	r3, [pc, #152]	; 90d8 <main+0x1028>
    903c:	e5933000 	ldr	r3, [r3]
    9040:	e2433004 	sub	r3, r3, #4
    9044:	e59f208c 	ldr	r2, [pc, #140]	; 90d8 <main+0x1028>
    9048:	e5823000 	str	r3, [r2]
    904c:	e59d2528 	ldr	r2, [sp, #1320]	; 0x528
    9050:	e59d3524 	ldr	r3, [sp, #1316]	; 0x524
    9054:	e0823003 	add	r3, r2, r3
    9058:	e58d3520 	str	r3, [sp, #1312]	; 0x520
    905c:	e59f3068 	ldr	r3, [pc, #104]	; 90cc <main+0x101c>
    9060:	e5933000 	ldr	r3, [r3]
    9064:	e59f1068 	ldr	r1, [pc, #104]	; 90d4 <main+0x1024>
    9068:	e59d2528 	ldr	r2, [sp, #1320]	; 0x528
    906c:	e7812103 	str	r2, [r1, r3, lsl #2]
    9070:	e59f3054 	ldr	r3, [pc, #84]	; 90cc <main+0x101c>
    9074:	e5933000 	ldr	r3, [r3]
    9078:	e2833001 	add	r3, r3, #1
    907c:	e59f1050 	ldr	r1, [pc, #80]	; 90d4 <main+0x1024>
    9080:	e59d2524 	ldr	r2, [sp, #1316]	; 0x524
    9084:	e7812103 	str	r2, [r1, r3, lsl #2]
    9088:	e59f303c 	ldr	r3, [pc, #60]	; 90cc <main+0x101c>
    908c:	e5933000 	ldr	r3, [r3]
    9090:	e2833002 	add	r3, r3, #2
    9094:	e59f1038 	ldr	r1, [pc, #56]	; 90d4 <main+0x1024>
    9098:	e59d2520 	ldr	r2, [sp, #1312]	; 0x520
    909c:	e7812103 	str	r2, [r1, r3, lsl #2]
    90a0:	e59f3024 	ldr	r3, [pc, #36]	; 90cc <main+0x101c>
    90a4:	e5933000 	ldr	r3, [r3]
    90a8:	e2833003 	add	r3, r3, #3
    90ac:	e59f2018 	ldr	r2, [pc, #24]	; 90cc <main+0x101c>
    90b0:	e5823000 	str	r3, [r2]
    90b4:	e59f301c 	ldr	r3, [pc, #28]	; 90d8 <main+0x1028>
    90b8:	e5933000 	ldr	r3, [r3]
    90bc:	e3530003 	cmp	r3, #3
    90c0:	da000041 	ble	91cc <main+0x111c>
    90c4:	ea000006 	b	90e4 <main+0x1034>
    90c8:	0001ff5c 	.word	0x0001ff5c
    90cc:	0001ff64 	.word	0x0001ff64
    90d0:	0001ff80 	.word	0x0001ff80
    90d4:	0001ff68 	.word	0x0001ff68
    90d8:	0001ff60 	.word	0x0001ff60
    90dc:	0001ff64 	.word	0x0001ff64
    90e0:	0001ff8c 	.word	0x0001ff8c
    90e4:	e51f3010 	ldr	r3, [pc, #-16]	; 90dc <main+0x102c>
    90e8:	e5933000 	ldr	r3, [r3]
    90ec:	e2833003 	add	r3, r3, #3
    90f0:	e3530006 	cmp	r3, #6
    90f4:	ca000034 	bgt	91cc <main+0x111c>
    90f8:	e51f3020 	ldr	r3, [pc, #-32]	; 90e0 <main+0x1030>
    90fc:	e593200c 	ldr	r2, [r3, #12]
    9100:	e51f3028 	ldr	r3, [pc, #-40]	; 90e0 <main+0x1030>
    9104:	e5933008 	ldr	r3, [r3, #8]
    9108:	e1520003 	cmp	r2, r3
    910c:	1a00002e 	bne	91cc <main+0x111c>
    9110:	e51f3038 	ldr	r3, [pc, #-56]	; 90e0 <main+0x1030>
    9114:	e593200c 	ldr	r2, [r3, #12]
    9118:	e51f3040 	ldr	r3, [pc, #-64]	; 90e0 <main+0x1030>
    911c:	e5933000 	ldr	r3, [r3]
    9120:	e1520003 	cmp	r2, r3
    9124:	1a000028 	bne	91cc <main+0x111c>
    9128:	e51f3050 	ldr	r3, [pc, #-80]	; 90e0 <main+0x1030>
    912c:	e5933004 	ldr	r3, [r3, #4]
    9130:	e58d351c 	str	r3, [sp, #1308]	; 0x51c
    9134:	e51f305c 	ldr	r3, [pc, #-92]	; 90e0 <main+0x1030>
    9138:	e593300c 	ldr	r3, [r3, #12]
    913c:	e58d3518 	str	r3, [sp, #1304]	; 0x518
    9140:	e59d2518 	ldr	r2, [sp, #1304]	; 0x518
    9144:	e59d351c 	ldr	r3, [sp, #1308]	; 0x51c
    9148:	e1520003 	cmp	r2, r3
    914c:	da00001e 	ble	91cc <main+0x111c>
    9150:	e51f3080 	ldr	r3, [pc, #-128]	; 90d8 <main+0x1028>
    9154:	e5933000 	ldr	r3, [r3]
    9158:	e2433004 	sub	r3, r3, #4
    915c:	e51f208c 	ldr	r2, [pc, #-140]	; 90d8 <main+0x1028>
    9160:	e5823000 	str	r3, [r2]
    9164:	e59d251c 	ldr	r2, [sp, #1308]	; 0x51c
    9168:	e59d3518 	ldr	r3, [sp, #1304]	; 0x518
    916c:	e0823003 	add	r3, r2, r3
    9170:	e58d3514 	str	r3, [sp, #1300]	; 0x514
    9174:	e51f30a0 	ldr	r3, [pc, #-160]	; 90dc <main+0x102c>
    9178:	e5933000 	ldr	r3, [r3]
    917c:	e51f10b0 	ldr	r1, [pc, #-176]	; 90d4 <main+0x1024>
    9180:	e59d251c 	ldr	r2, [sp, #1308]	; 0x51c
    9184:	e7812103 	str	r2, [r1, r3, lsl #2]
    9188:	e51f30b4 	ldr	r3, [pc, #-180]	; 90dc <main+0x102c>
    918c:	e5933000 	ldr	r3, [r3]
    9190:	e2833001 	add	r3, r3, #1
    9194:	e51f10c8 	ldr	r1, [pc, #-200]	; 90d4 <main+0x1024>
    9198:	e59d2518 	ldr	r2, [sp, #1304]	; 0x518
    919c:	e7812103 	str	r2, [r1, r3, lsl #2]
    91a0:	e51f30cc 	ldr	r3, [pc, #-204]	; 90dc <main+0x102c>
    91a4:	e5933000 	ldr	r3, [r3]
    91a8:	e2833002 	add	r3, r3, #2
    91ac:	e51f10e0 	ldr	r1, [pc, #-224]	; 90d4 <main+0x1024>
    91b0:	e59d2514 	ldr	r2, [sp, #1300]	; 0x514
    91b4:	e7812103 	str	r2, [r1, r3, lsl #2]
    91b8:	e51f30e4 	ldr	r3, [pc, #-228]	; 90dc <main+0x102c>
    91bc:	e5933000 	ldr	r3, [r3]
    91c0:	e2833003 	add	r3, r3, #3
    91c4:	e51f20f0 	ldr	r2, [pc, #-240]	; 90dc <main+0x102c>
    91c8:	e5823000 	str	r3, [r2]
    91cc:	e51f30fc 	ldr	r3, [pc, #-252]	; 90d8 <main+0x1028>
    91d0:	e5933000 	ldr	r3, [r3]
    91d4:	e3530003 	cmp	r3, #3
    91d8:	da000039 	ble	92c4 <main+0x1214>
    91dc:	e51f3108 	ldr	r3, [pc, #-264]	; 90dc <main+0x102c>
    91e0:	e5933000 	ldr	r3, [r3]
    91e4:	e2833003 	add	r3, r3, #3
    91e8:	e3530006 	cmp	r3, #6
    91ec:	ca000034 	bgt	92c4 <main+0x1214>
    91f0:	e51f3118 	ldr	r3, [pc, #-280]	; 90e0 <main+0x1030>
    91f4:	e5932000 	ldr	r2, [r3]
    91f8:	e51f3120 	ldr	r3, [pc, #-288]	; 90e0 <main+0x1030>
    91fc:	e5933004 	ldr	r3, [r3, #4]
    9200:	e1520003 	cmp	r2, r3
    9204:	1a00002e 	bne	92c4 <main+0x1214>
    9208:	e51f3130 	ldr	r3, [pc, #-304]	; 90e0 <main+0x1030>
    920c:	e5932000 	ldr	r2, [r3]
    9210:	e51f3138 	ldr	r3, [pc, #-312]	; 90e0 <main+0x1030>
    9214:	e593300c 	ldr	r3, [r3, #12]
    9218:	e1520003 	cmp	r2, r3
    921c:	1a000028 	bne	92c4 <main+0x1214>
    9220:	e51f3148 	ldr	r3, [pc, #-328]	; 90e0 <main+0x1030>
    9224:	e5933008 	ldr	r3, [r3, #8]
    9228:	e58d3510 	str	r3, [sp, #1296]	; 0x510
    922c:	e51f3154 	ldr	r3, [pc, #-340]	; 90e0 <main+0x1030>
    9230:	e5933000 	ldr	r3, [r3]
    9234:	e58d350c 	str	r3, [sp, #1292]	; 0x50c
    9238:	e59d250c 	ldr	r2, [sp, #1292]	; 0x50c
    923c:	e59d3510 	ldr	r3, [sp, #1296]	; 0x510
    9240:	e1520003 	cmp	r2, r3
    9244:	da00001e 	ble	92c4 <main+0x1214>
    9248:	e51f3178 	ldr	r3, [pc, #-376]	; 90d8 <main+0x1028>
    924c:	e5933000 	ldr	r3, [r3]
    9250:	e2433004 	sub	r3, r3, #4
    9254:	e51f2184 	ldr	r2, [pc, #-388]	; 90d8 <main+0x1028>
    9258:	e5823000 	str	r3, [r2]
    925c:	e59d2510 	ldr	r2, [sp, #1296]	; 0x510
    9260:	e59d350c 	ldr	r3, [sp, #1292]	; 0x50c
    9264:	e0823003 	add	r3, r2, r3
    9268:	e58d3508 	str	r3, [sp, #1288]	; 0x508
    926c:	e51f3198 	ldr	r3, [pc, #-408]	; 90dc <main+0x102c>
    9270:	e5933000 	ldr	r3, [r3]
    9274:	e51f11a8 	ldr	r1, [pc, #-424]	; 90d4 <main+0x1024>
    9278:	e59d2510 	ldr	r2, [sp, #1296]	; 0x510
    927c:	e7812103 	str	r2, [r1, r3, lsl #2]
    9280:	e51f31ac 	ldr	r3, [pc, #-428]	; 90dc <main+0x102c>
    9284:	e5933000 	ldr	r3, [r3]
    9288:	e2833001 	add	r3, r3, #1
    928c:	e51f11c0 	ldr	r1, [pc, #-448]	; 90d4 <main+0x1024>
    9290:	e59d250c 	ldr	r2, [sp, #1292]	; 0x50c
    9294:	e7812103 	str	r2, [r1, r3, lsl #2]
    9298:	e51f31c4 	ldr	r3, [pc, #-452]	; 90dc <main+0x102c>
    929c:	e5933000 	ldr	r3, [r3]
    92a0:	e2833002 	add	r3, r3, #2
    92a4:	e51f11d8 	ldr	r1, [pc, #-472]	; 90d4 <main+0x1024>
    92a8:	e59d2508 	ldr	r2, [sp, #1288]	; 0x508
    92ac:	e7812103 	str	r2, [r1, r3, lsl #2]
    92b0:	e51f31dc 	ldr	r3, [pc, #-476]	; 90dc <main+0x102c>
    92b4:	e5933000 	ldr	r3, [r3]
    92b8:	e2833003 	add	r3, r3, #3
    92bc:	e51f21e8 	ldr	r2, [pc, #-488]	; 90dc <main+0x102c>
    92c0:	e5823000 	str	r3, [r2]
    92c4:	e51f31f4 	ldr	r3, [pc, #-500]	; 90d8 <main+0x1028>
    92c8:	e5933000 	ldr	r3, [r3]
    92cc:	e3530003 	cmp	r3, #3
    92d0:	da000039 	ble	93bc <main+0x130c>
    92d4:	e51f3200 	ldr	r3, [pc, #-512]	; 90dc <main+0x102c>
    92d8:	e5933000 	ldr	r3, [r3]
    92dc:	e2833003 	add	r3, r3, #3
    92e0:	e3530006 	cmp	r3, #6
    92e4:	ca000034 	bgt	93bc <main+0x130c>
    92e8:	e51f3210 	ldr	r3, [pc, #-528]	; 90e0 <main+0x1030>
    92ec:	e5932000 	ldr	r2, [r3]
    92f0:	e51f3218 	ldr	r3, [pc, #-536]	; 90e0 <main+0x1030>
    92f4:	e593300c 	ldr	r3, [r3, #12]
    92f8:	e1520003 	cmp	r2, r3
    92fc:	1a00002e 	bne	93bc <main+0x130c>
    9300:	e51f3228 	ldr	r3, [pc, #-552]	; 90e0 <main+0x1030>
    9304:	e5932000 	ldr	r2, [r3]
    9308:	e51f3230 	ldr	r3, [pc, #-560]	; 90e0 <main+0x1030>
    930c:	e5933004 	ldr	r3, [r3, #4]
    9310:	e1520003 	cmp	r2, r3
    9314:	1a000028 	bne	93bc <main+0x130c>
    9318:	e51f3240 	ldr	r3, [pc, #-576]	; 90e0 <main+0x1030>
    931c:	e5933008 	ldr	r3, [r3, #8]
    9320:	e58d3504 	str	r3, [sp, #1284]	; 0x504
    9324:	e51f324c 	ldr	r3, [pc, #-588]	; 90e0 <main+0x1030>
    9328:	e5933000 	ldr	r3, [r3]
    932c:	e58d3500 	str	r3, [sp, #1280]	; 0x500
    9330:	e59d2500 	ldr	r2, [sp, #1280]	; 0x500
    9334:	e59d3504 	ldr	r3, [sp, #1284]	; 0x504
    9338:	e1520003 	cmp	r2, r3
    933c:	da00001e 	ble	93bc <main+0x130c>
    9340:	e51f3270 	ldr	r3, [pc, #-624]	; 90d8 <main+0x1028>
    9344:	e5933000 	ldr	r3, [r3]
    9348:	e2433004 	sub	r3, r3, #4
    934c:	e51f227c 	ldr	r2, [pc, #-636]	; 90d8 <main+0x1028>
    9350:	e5823000 	str	r3, [r2]
    9354:	e59d2504 	ldr	r2, [sp, #1284]	; 0x504
    9358:	e59d3500 	ldr	r3, [sp, #1280]	; 0x500
    935c:	e0823003 	add	r3, r2, r3
    9360:	e58d34fc 	str	r3, [sp, #1276]	; 0x4fc
    9364:	e51f3290 	ldr	r3, [pc, #-656]	; 90dc <main+0x102c>
    9368:	e5933000 	ldr	r3, [r3]
    936c:	e51f12a0 	ldr	r1, [pc, #-672]	; 90d4 <main+0x1024>
    9370:	e59d2504 	ldr	r2, [sp, #1284]	; 0x504
    9374:	e7812103 	str	r2, [r1, r3, lsl #2]
    9378:	e51f32a4 	ldr	r3, [pc, #-676]	; 90dc <main+0x102c>
    937c:	e5933000 	ldr	r3, [r3]
    9380:	e2833001 	add	r3, r3, #1
    9384:	e51f12b8 	ldr	r1, [pc, #-696]	; 90d4 <main+0x1024>
    9388:	e59d2500 	ldr	r2, [sp, #1280]	; 0x500
    938c:	e7812103 	str	r2, [r1, r3, lsl #2]
    9390:	e51f32bc 	ldr	r3, [pc, #-700]	; 90dc <main+0x102c>
    9394:	e5933000 	ldr	r3, [r3]
    9398:	e2833002 	add	r3, r3, #2
    939c:	e51f12d0 	ldr	r1, [pc, #-720]	; 90d4 <main+0x1024>
    93a0:	e59d24fc 	ldr	r2, [sp, #1276]	; 0x4fc
    93a4:	e7812103 	str	r2, [r1, r3, lsl #2]
    93a8:	e51f32d4 	ldr	r3, [pc, #-724]	; 90dc <main+0x102c>
    93ac:	e5933000 	ldr	r3, [r3]
    93b0:	e2833003 	add	r3, r3, #3
    93b4:	e51f22e0 	ldr	r2, [pc, #-736]	; 90dc <main+0x102c>
    93b8:	e5823000 	str	r3, [r2]
    93bc:	e51f32ec 	ldr	r3, [pc, #-748]	; 90d8 <main+0x1028>
    93c0:	e5933000 	ldr	r3, [r3]
    93c4:	e3530003 	cmp	r3, #3
    93c8:	da000039 	ble	94b4 <main+0x1404>
    93cc:	e51f32f8 	ldr	r3, [pc, #-760]	; 90dc <main+0x102c>
    93d0:	e5933000 	ldr	r3, [r3]
    93d4:	e2833003 	add	r3, r3, #3
    93d8:	e3530006 	cmp	r3, #6
    93dc:	ca000034 	bgt	94b4 <main+0x1404>
    93e0:	e51f3308 	ldr	r3, [pc, #-776]	; 90e0 <main+0x1030>
    93e4:	e5932004 	ldr	r2, [r3, #4]
    93e8:	e51f3310 	ldr	r3, [pc, #-784]	; 90e0 <main+0x1030>
    93ec:	e5933000 	ldr	r3, [r3]
    93f0:	e1520003 	cmp	r2, r3
    93f4:	1a00002e 	bne	94b4 <main+0x1404>
    93f8:	e51f3320 	ldr	r3, [pc, #-800]	; 90e0 <main+0x1030>
    93fc:	e5932004 	ldr	r2, [r3, #4]
    9400:	e51f3328 	ldr	r3, [pc, #-808]	; 90e0 <main+0x1030>
    9404:	e593300c 	ldr	r3, [r3, #12]
    9408:	e1520003 	cmp	r2, r3
    940c:	1a000028 	bne	94b4 <main+0x1404>
    9410:	e51f3338 	ldr	r3, [pc, #-824]	; 90e0 <main+0x1030>
    9414:	e5933008 	ldr	r3, [r3, #8]
    9418:	e58d34f8 	str	r3, [sp, #1272]	; 0x4f8
    941c:	e51f3344 	ldr	r3, [pc, #-836]	; 90e0 <main+0x1030>
    9420:	e5933004 	ldr	r3, [r3, #4]
    9424:	e58d34f4 	str	r3, [sp, #1268]	; 0x4f4
    9428:	e59d24f4 	ldr	r2, [sp, #1268]	; 0x4f4
    942c:	e59d34f8 	ldr	r3, [sp, #1272]	; 0x4f8
    9430:	e1520003 	cmp	r2, r3
    9434:	da00001e 	ble	94b4 <main+0x1404>
    9438:	e51f3368 	ldr	r3, [pc, #-872]	; 90d8 <main+0x1028>
    943c:	e5933000 	ldr	r3, [r3]
    9440:	e2433004 	sub	r3, r3, #4
    9444:	e51f2374 	ldr	r2, [pc, #-884]	; 90d8 <main+0x1028>
    9448:	e5823000 	str	r3, [r2]
    944c:	e59d24f8 	ldr	r2, [sp, #1272]	; 0x4f8
    9450:	e59d34f4 	ldr	r3, [sp, #1268]	; 0x4f4
    9454:	e0823003 	add	r3, r2, r3
    9458:	e58d34f0 	str	r3, [sp, #1264]	; 0x4f0
    945c:	e51f3388 	ldr	r3, [pc, #-904]	; 90dc <main+0x102c>
    9460:	e5933000 	ldr	r3, [r3]
    9464:	e51f1398 	ldr	r1, [pc, #-920]	; 90d4 <main+0x1024>
    9468:	e59d24f8 	ldr	r2, [sp, #1272]	; 0x4f8
    946c:	e7812103 	str	r2, [r1, r3, lsl #2]
    9470:	e51f339c 	ldr	r3, [pc, #-924]	; 90dc <main+0x102c>
    9474:	e5933000 	ldr	r3, [r3]
    9478:	e2833001 	add	r3, r3, #1
    947c:	e51f13b0 	ldr	r1, [pc, #-944]	; 90d4 <main+0x1024>
    9480:	e59d24f4 	ldr	r2, [sp, #1268]	; 0x4f4
    9484:	e7812103 	str	r2, [r1, r3, lsl #2]
    9488:	e51f33b4 	ldr	r3, [pc, #-948]	; 90dc <main+0x102c>
    948c:	e5933000 	ldr	r3, [r3]
    9490:	e2833002 	add	r3, r3, #2
    9494:	e51f13c8 	ldr	r1, [pc, #-968]	; 90d4 <main+0x1024>
    9498:	e59d24f0 	ldr	r2, [sp, #1264]	; 0x4f0
    949c:	e7812103 	str	r2, [r1, r3, lsl #2]
    94a0:	e51f33cc 	ldr	r3, [pc, #-972]	; 90dc <main+0x102c>
    94a4:	e5933000 	ldr	r3, [r3]
    94a8:	e2833003 	add	r3, r3, #3
    94ac:	e51f23d8 	ldr	r2, [pc, #-984]	; 90dc <main+0x102c>
    94b0:	e5823000 	str	r3, [r2]
    94b4:	e51f33e4 	ldr	r3, [pc, #-996]	; 90d8 <main+0x1028>
    94b8:	e5933000 	ldr	r3, [r3]
    94bc:	e3530003 	cmp	r3, #3
    94c0:	da000039 	ble	95ac <main+0x14fc>
    94c4:	e51f33f0 	ldr	r3, [pc, #-1008]	; 90dc <main+0x102c>
    94c8:	e5933000 	ldr	r3, [r3]
    94cc:	e2833003 	add	r3, r3, #3
    94d0:	e3530006 	cmp	r3, #6
    94d4:	ca000034 	bgt	95ac <main+0x14fc>
    94d8:	e51f3400 	ldr	r3, [pc, #-1024]	; 90e0 <main+0x1030>
    94dc:	e5932004 	ldr	r2, [r3, #4]
    94e0:	e51f3408 	ldr	r3, [pc, #-1032]	; 90e0 <main+0x1030>
    94e4:	e593300c 	ldr	r3, [r3, #12]
    94e8:	e1520003 	cmp	r2, r3
    94ec:	1a00002e 	bne	95ac <main+0x14fc>
    94f0:	e51f3418 	ldr	r3, [pc, #-1048]	; 90e0 <main+0x1030>
    94f4:	e5932004 	ldr	r2, [r3, #4]
    94f8:	e51f3420 	ldr	r3, [pc, #-1056]	; 90e0 <main+0x1030>
    94fc:	e5933000 	ldr	r3, [r3]
    9500:	e1520003 	cmp	r2, r3
    9504:	1a000028 	bne	95ac <main+0x14fc>
    9508:	e51f3430 	ldr	r3, [pc, #-1072]	; 90e0 <main+0x1030>
    950c:	e5933008 	ldr	r3, [r3, #8]
    9510:	e58d34ec 	str	r3, [sp, #1260]	; 0x4ec
    9514:	e51f343c 	ldr	r3, [pc, #-1084]	; 90e0 <main+0x1030>
    9518:	e5933004 	ldr	r3, [r3, #4]
    951c:	e58d34e8 	str	r3, [sp, #1256]	; 0x4e8
    9520:	e59d24e8 	ldr	r2, [sp, #1256]	; 0x4e8
    9524:	e59d34ec 	ldr	r3, [sp, #1260]	; 0x4ec
    9528:	e1520003 	cmp	r2, r3
    952c:	da00001e 	ble	95ac <main+0x14fc>
    9530:	e51f3460 	ldr	r3, [pc, #-1120]	; 90d8 <main+0x1028>
    9534:	e5933000 	ldr	r3, [r3]
    9538:	e2433004 	sub	r3, r3, #4
    953c:	e51f246c 	ldr	r2, [pc, #-1132]	; 90d8 <main+0x1028>
    9540:	e5823000 	str	r3, [r2]
    9544:	e59d24ec 	ldr	r2, [sp, #1260]	; 0x4ec
    9548:	e59d34e8 	ldr	r3, [sp, #1256]	; 0x4e8
    954c:	e0823003 	add	r3, r2, r3
    9550:	e58d34e4 	str	r3, [sp, #1252]	; 0x4e4
    9554:	e51f3480 	ldr	r3, [pc, #-1152]	; 90dc <main+0x102c>
    9558:	e5933000 	ldr	r3, [r3]
    955c:	e51f1490 	ldr	r1, [pc, #-1168]	; 90d4 <main+0x1024>
    9560:	e59d24ec 	ldr	r2, [sp, #1260]	; 0x4ec
    9564:	e7812103 	str	r2, [r1, r3, lsl #2]
    9568:	e51f3494 	ldr	r3, [pc, #-1172]	; 90dc <main+0x102c>
    956c:	e5933000 	ldr	r3, [r3]
    9570:	e2833001 	add	r3, r3, #1
    9574:	e51f14a8 	ldr	r1, [pc, #-1192]	; 90d4 <main+0x1024>
    9578:	e59d24e8 	ldr	r2, [sp, #1256]	; 0x4e8
    957c:	e7812103 	str	r2, [r1, r3, lsl #2]
    9580:	e51f34ac 	ldr	r3, [pc, #-1196]	; 90dc <main+0x102c>
    9584:	e5933000 	ldr	r3, [r3]
    9588:	e2833002 	add	r3, r3, #2
    958c:	e51f14c0 	ldr	r1, [pc, #-1216]	; 90d4 <main+0x1024>
    9590:	e59d24e4 	ldr	r2, [sp, #1252]	; 0x4e4
    9594:	e7812103 	str	r2, [r1, r3, lsl #2]
    9598:	e51f34c4 	ldr	r3, [pc, #-1220]	; 90dc <main+0x102c>
    959c:	e5933000 	ldr	r3, [r3]
    95a0:	e2833003 	add	r3, r3, #3
    95a4:	e51f24d0 	ldr	r2, [pc, #-1232]	; 90dc <main+0x102c>
    95a8:	e5823000 	str	r3, [r2]
    95ac:	e51f34dc 	ldr	r3, [pc, #-1244]	; 90d8 <main+0x1028>
    95b0:	e5933000 	ldr	r3, [r3]
    95b4:	e3530003 	cmp	r3, #3
    95b8:	da000039 	ble	96a4 <main+0x15f4>
    95bc:	e51f34e8 	ldr	r3, [pc, #-1256]	; 90dc <main+0x102c>
    95c0:	e5933000 	ldr	r3, [r3]
    95c4:	e2833003 	add	r3, r3, #3
    95c8:	e3530006 	cmp	r3, #6
    95cc:	ca000034 	bgt	96a4 <main+0x15f4>
    95d0:	e51f34f8 	ldr	r3, [pc, #-1272]	; 90e0 <main+0x1030>
    95d4:	e593200c 	ldr	r2, [r3, #12]
    95d8:	e51f3500 	ldr	r3, [pc, #-1280]	; 90e0 <main+0x1030>
    95dc:	e5933000 	ldr	r3, [r3]
    95e0:	e1520003 	cmp	r2, r3
    95e4:	1a00002e 	bne	96a4 <main+0x15f4>
    95e8:	e51f3510 	ldr	r3, [pc, #-1296]	; 90e0 <main+0x1030>
    95ec:	e593200c 	ldr	r2, [r3, #12]
    95f0:	e51f3518 	ldr	r3, [pc, #-1304]	; 90e0 <main+0x1030>
    95f4:	e5933004 	ldr	r3, [r3, #4]
    95f8:	e1520003 	cmp	r2, r3
    95fc:	1a000028 	bne	96a4 <main+0x15f4>
    9600:	e51f3528 	ldr	r3, [pc, #-1320]	; 90e0 <main+0x1030>
    9604:	e5933008 	ldr	r3, [r3, #8]
    9608:	e58d34e0 	str	r3, [sp, #1248]	; 0x4e0
    960c:	e51f3534 	ldr	r3, [pc, #-1332]	; 90e0 <main+0x1030>
    9610:	e593300c 	ldr	r3, [r3, #12]
    9614:	e58d34dc 	str	r3, [sp, #1244]	; 0x4dc
    9618:	e59d24dc 	ldr	r2, [sp, #1244]	; 0x4dc
    961c:	e59d34e0 	ldr	r3, [sp, #1248]	; 0x4e0
    9620:	e1520003 	cmp	r2, r3
    9624:	da00001e 	ble	96a4 <main+0x15f4>
    9628:	e51f3558 	ldr	r3, [pc, #-1368]	; 90d8 <main+0x1028>
    962c:	e5933000 	ldr	r3, [r3]
    9630:	e2433004 	sub	r3, r3, #4
    9634:	e51f2564 	ldr	r2, [pc, #-1380]	; 90d8 <main+0x1028>
    9638:	e5823000 	str	r3, [r2]
    963c:	e59d24e0 	ldr	r2, [sp, #1248]	; 0x4e0
    9640:	e59d34dc 	ldr	r3, [sp, #1244]	; 0x4dc
    9644:	e0823003 	add	r3, r2, r3
    9648:	e58d34d8 	str	r3, [sp, #1240]	; 0x4d8
    964c:	e51f3578 	ldr	r3, [pc, #-1400]	; 90dc <main+0x102c>
    9650:	e5933000 	ldr	r3, [r3]
    9654:	e51f1588 	ldr	r1, [pc, #-1416]	; 90d4 <main+0x1024>
    9658:	e59d24e0 	ldr	r2, [sp, #1248]	; 0x4e0
    965c:	e7812103 	str	r2, [r1, r3, lsl #2]
    9660:	e51f358c 	ldr	r3, [pc, #-1420]	; 90dc <main+0x102c>
    9664:	e5933000 	ldr	r3, [r3]
    9668:	e2833001 	add	r3, r3, #1
    966c:	e51f15a0 	ldr	r1, [pc, #-1440]	; 90d4 <main+0x1024>
    9670:	e59d24dc 	ldr	r2, [sp, #1244]	; 0x4dc
    9674:	e7812103 	str	r2, [r1, r3, lsl #2]
    9678:	e51f35a4 	ldr	r3, [pc, #-1444]	; 90dc <main+0x102c>
    967c:	e5933000 	ldr	r3, [r3]
    9680:	e2833002 	add	r3, r3, #2
    9684:	e51f15b8 	ldr	r1, [pc, #-1464]	; 90d4 <main+0x1024>
    9688:	e59d24d8 	ldr	r2, [sp, #1240]	; 0x4d8
    968c:	e7812103 	str	r2, [r1, r3, lsl #2]
    9690:	e51f35bc 	ldr	r3, [pc, #-1468]	; 90dc <main+0x102c>
    9694:	e5933000 	ldr	r3, [r3]
    9698:	e2833003 	add	r3, r3, #3
    969c:	e51f25c8 	ldr	r2, [pc, #-1480]	; 90dc <main+0x102c>
    96a0:	e5823000 	str	r3, [r2]
    96a4:	e51f35d4 	ldr	r3, [pc, #-1492]	; 90d8 <main+0x1028>
    96a8:	e5933000 	ldr	r3, [r3]
    96ac:	e3530003 	cmp	r3, #3
    96b0:	da000039 	ble	979c <main+0x16ec>
    96b4:	e51f35e0 	ldr	r3, [pc, #-1504]	; 90dc <main+0x102c>
    96b8:	e5933000 	ldr	r3, [r3]
    96bc:	e2833003 	add	r3, r3, #3
    96c0:	e3530006 	cmp	r3, #6
    96c4:	ca000034 	bgt	979c <main+0x16ec>
    96c8:	e51f35f0 	ldr	r3, [pc, #-1520]	; 90e0 <main+0x1030>
    96cc:	e593200c 	ldr	r2, [r3, #12]
    96d0:	e51f35f8 	ldr	r3, [pc, #-1528]	; 90e0 <main+0x1030>
    96d4:	e5933004 	ldr	r3, [r3, #4]
    96d8:	e1520003 	cmp	r2, r3
    96dc:	1a00002e 	bne	979c <main+0x16ec>
    96e0:	e51f3608 	ldr	r3, [pc, #-1544]	; 90e0 <main+0x1030>
    96e4:	e593200c 	ldr	r2, [r3, #12]
    96e8:	e51f3610 	ldr	r3, [pc, #-1552]	; 90e0 <main+0x1030>
    96ec:	e5933000 	ldr	r3, [r3]
    96f0:	e1520003 	cmp	r2, r3
    96f4:	1a000028 	bne	979c <main+0x16ec>
    96f8:	e51f3620 	ldr	r3, [pc, #-1568]	; 90e0 <main+0x1030>
    96fc:	e5933008 	ldr	r3, [r3, #8]
    9700:	e58d34d4 	str	r3, [sp, #1236]	; 0x4d4
    9704:	e51f362c 	ldr	r3, [pc, #-1580]	; 90e0 <main+0x1030>
    9708:	e593300c 	ldr	r3, [r3, #12]
    970c:	e58d34d0 	str	r3, [sp, #1232]	; 0x4d0
    9710:	e59d24d0 	ldr	r2, [sp, #1232]	; 0x4d0
    9714:	e59d34d4 	ldr	r3, [sp, #1236]	; 0x4d4
    9718:	e1520003 	cmp	r2, r3
    971c:	da00001e 	ble	979c <main+0x16ec>
    9720:	e51f3650 	ldr	r3, [pc, #-1616]	; 90d8 <main+0x1028>
    9724:	e5933000 	ldr	r3, [r3]
    9728:	e2433004 	sub	r3, r3, #4
    972c:	e51f265c 	ldr	r2, [pc, #-1628]	; 90d8 <main+0x1028>
    9730:	e5823000 	str	r3, [r2]
    9734:	e59d24d4 	ldr	r2, [sp, #1236]	; 0x4d4
    9738:	e59d34d0 	ldr	r3, [sp, #1232]	; 0x4d0
    973c:	e0823003 	add	r3, r2, r3
    9740:	e58d34cc 	str	r3, [sp, #1228]	; 0x4cc
    9744:	e51f3670 	ldr	r3, [pc, #-1648]	; 90dc <main+0x102c>
    9748:	e5933000 	ldr	r3, [r3]
    974c:	e51f1680 	ldr	r1, [pc, #-1664]	; 90d4 <main+0x1024>
    9750:	e59d24d4 	ldr	r2, [sp, #1236]	; 0x4d4
    9754:	e7812103 	str	r2, [r1, r3, lsl #2]
    9758:	e51f3684 	ldr	r3, [pc, #-1668]	; 90dc <main+0x102c>
    975c:	e5933000 	ldr	r3, [r3]
    9760:	e2833001 	add	r3, r3, #1
    9764:	e51f1698 	ldr	r1, [pc, #-1688]	; 90d4 <main+0x1024>
    9768:	e59d24d0 	ldr	r2, [sp, #1232]	; 0x4d0
    976c:	e7812103 	str	r2, [r1, r3, lsl #2]
    9770:	e51f369c 	ldr	r3, [pc, #-1692]	; 90dc <main+0x102c>
    9774:	e5933000 	ldr	r3, [r3]
    9778:	e2833002 	add	r3, r3, #2
    977c:	e51f16b0 	ldr	r1, [pc, #-1712]	; 90d4 <main+0x1024>
    9780:	e59d24cc 	ldr	r2, [sp, #1228]	; 0x4cc
    9784:	e7812103 	str	r2, [r1, r3, lsl #2]
    9788:	e51f36b4 	ldr	r3, [pc, #-1716]	; 90dc <main+0x102c>
    978c:	e5933000 	ldr	r3, [r3]
    9790:	e2833003 	add	r3, r3, #3
    9794:	e51f26c0 	ldr	r2, [pc, #-1728]	; 90dc <main+0x102c>
    9798:	e5823000 	str	r3, [r2]
    979c:	e51f36cc 	ldr	r3, [pc, #-1740]	; 90d8 <main+0x1028>
    97a0:	e5933000 	ldr	r3, [r3]
    97a4:	e3530003 	cmp	r3, #3
    97a8:	da000039 	ble	9894 <main+0x17e4>
    97ac:	e51f36d8 	ldr	r3, [pc, #-1752]	; 90dc <main+0x102c>
    97b0:	e5933000 	ldr	r3, [r3]
    97b4:	e2833003 	add	r3, r3, #3
    97b8:	e3530006 	cmp	r3, #6
    97bc:	ca000034 	bgt	9894 <main+0x17e4>
    97c0:	e51f36e8 	ldr	r3, [pc, #-1768]	; 90e0 <main+0x1030>
    97c4:	e5932000 	ldr	r2, [r3]
    97c8:	e51f36f0 	ldr	r3, [pc, #-1776]	; 90e0 <main+0x1030>
    97cc:	e5933004 	ldr	r3, [r3, #4]
    97d0:	e1520003 	cmp	r2, r3
    97d4:	1a00002e 	bne	9894 <main+0x17e4>
    97d8:	e51f3700 	ldr	r3, [pc, #-1792]	; 90e0 <main+0x1030>
    97dc:	e5932000 	ldr	r2, [r3]
    97e0:	e51f3708 	ldr	r3, [pc, #-1800]	; 90e0 <main+0x1030>
    97e4:	e5933008 	ldr	r3, [r3, #8]
    97e8:	e1520003 	cmp	r2, r3
    97ec:	1a000028 	bne	9894 <main+0x17e4>
    97f0:	e51f3718 	ldr	r3, [pc, #-1816]	; 90e0 <main+0x1030>
    97f4:	e593300c 	ldr	r3, [r3, #12]
    97f8:	e58d34c8 	str	r3, [sp, #1224]	; 0x4c8
    97fc:	e51f3724 	ldr	r3, [pc, #-1828]	; 90e0 <main+0x1030>
    9800:	e5933000 	ldr	r3, [r3]
    9804:	e58d34c4 	str	r3, [sp, #1220]	; 0x4c4
    9808:	e59d24c4 	ldr	r2, [sp, #1220]	; 0x4c4
    980c:	e59d34c8 	ldr	r3, [sp, #1224]	; 0x4c8
    9810:	e1520003 	cmp	r2, r3
    9814:	da00001e 	ble	9894 <main+0x17e4>
    9818:	e51f3748 	ldr	r3, [pc, #-1864]	; 90d8 <main+0x1028>
    981c:	e5933000 	ldr	r3, [r3]
    9820:	e2433004 	sub	r3, r3, #4
    9824:	e51f2754 	ldr	r2, [pc, #-1876]	; 90d8 <main+0x1028>
    9828:	e5823000 	str	r3, [r2]
    982c:	e59d24c8 	ldr	r2, [sp, #1224]	; 0x4c8
    9830:	e59d34c4 	ldr	r3, [sp, #1220]	; 0x4c4
    9834:	e0823003 	add	r3, r2, r3
    9838:	e58d34c0 	str	r3, [sp, #1216]	; 0x4c0
    983c:	e51f3768 	ldr	r3, [pc, #-1896]	; 90dc <main+0x102c>
    9840:	e5933000 	ldr	r3, [r3]
    9844:	e51f1778 	ldr	r1, [pc, #-1912]	; 90d4 <main+0x1024>
    9848:	e59d24c8 	ldr	r2, [sp, #1224]	; 0x4c8
    984c:	e7812103 	str	r2, [r1, r3, lsl #2]
    9850:	e51f377c 	ldr	r3, [pc, #-1916]	; 90dc <main+0x102c>
    9854:	e5933000 	ldr	r3, [r3]
    9858:	e2833001 	add	r3, r3, #1
    985c:	e51f1790 	ldr	r1, [pc, #-1936]	; 90d4 <main+0x1024>
    9860:	e59d24c4 	ldr	r2, [sp, #1220]	; 0x4c4
    9864:	e7812103 	str	r2, [r1, r3, lsl #2]
    9868:	e51f3794 	ldr	r3, [pc, #-1940]	; 90dc <main+0x102c>
    986c:	e5933000 	ldr	r3, [r3]
    9870:	e2833002 	add	r3, r3, #2
    9874:	e51f17a8 	ldr	r1, [pc, #-1960]	; 90d4 <main+0x1024>
    9878:	e59d24c0 	ldr	r2, [sp, #1216]	; 0x4c0
    987c:	e7812103 	str	r2, [r1, r3, lsl #2]
    9880:	e51f37ac 	ldr	r3, [pc, #-1964]	; 90dc <main+0x102c>
    9884:	e5933000 	ldr	r3, [r3]
    9888:	e2833003 	add	r3, r3, #3
    988c:	e51f27b8 	ldr	r2, [pc, #-1976]	; 90dc <main+0x102c>
    9890:	e5823000 	str	r3, [r2]
    9894:	e51f37c4 	ldr	r3, [pc, #-1988]	; 90d8 <main+0x1028>
    9898:	e5933000 	ldr	r3, [r3]
    989c:	e3530003 	cmp	r3, #3
    98a0:	da000039 	ble	998c <main+0x18dc>
    98a4:	e51f37d0 	ldr	r3, [pc, #-2000]	; 90dc <main+0x102c>
    98a8:	e5933000 	ldr	r3, [r3]
    98ac:	e2833003 	add	r3, r3, #3
    98b0:	e3530006 	cmp	r3, #6
    98b4:	ca000034 	bgt	998c <main+0x18dc>
    98b8:	e51f37e0 	ldr	r3, [pc, #-2016]	; 90e0 <main+0x1030>
    98bc:	e5932000 	ldr	r2, [r3]
    98c0:	e51f37e8 	ldr	r3, [pc, #-2024]	; 90e0 <main+0x1030>
    98c4:	e5933008 	ldr	r3, [r3, #8]
    98c8:	e1520003 	cmp	r2, r3
    98cc:	1a00002e 	bne	998c <main+0x18dc>
    98d0:	e51f37f8 	ldr	r3, [pc, #-2040]	; 90e0 <main+0x1030>
    98d4:	e5932000 	ldr	r2, [r3]
    98d8:	e51f3800 	ldr	r3, [pc, #-2048]	; 90e0 <main+0x1030>
    98dc:	e5933004 	ldr	r3, [r3, #4]
    98e0:	e1520003 	cmp	r2, r3
    98e4:	1a000028 	bne	998c <main+0x18dc>
    98e8:	e51f3810 	ldr	r3, [pc, #-2064]	; 90e0 <main+0x1030>
    98ec:	e593300c 	ldr	r3, [r3, #12]
    98f0:	e58d34bc 	str	r3, [sp, #1212]	; 0x4bc
    98f4:	e51f381c 	ldr	r3, [pc, #-2076]	; 90e0 <main+0x1030>
    98f8:	e5933000 	ldr	r3, [r3]
    98fc:	e58d34b8 	str	r3, [sp, #1208]	; 0x4b8
    9900:	e59d24b8 	ldr	r2, [sp, #1208]	; 0x4b8
    9904:	e59d34bc 	ldr	r3, [sp, #1212]	; 0x4bc
    9908:	e1520003 	cmp	r2, r3
    990c:	da00001e 	ble	998c <main+0x18dc>
    9910:	e51f3840 	ldr	r3, [pc, #-2112]	; 90d8 <main+0x1028>
    9914:	e5933000 	ldr	r3, [r3]
    9918:	e2433004 	sub	r3, r3, #4
    991c:	e51f284c 	ldr	r2, [pc, #-2124]	; 90d8 <main+0x1028>
    9920:	e5823000 	str	r3, [r2]
    9924:	e59d24bc 	ldr	r2, [sp, #1212]	; 0x4bc
    9928:	e59d34b8 	ldr	r3, [sp, #1208]	; 0x4b8
    992c:	e0823003 	add	r3, r2, r3
    9930:	e58d34b4 	str	r3, [sp, #1204]	; 0x4b4
    9934:	e51f3860 	ldr	r3, [pc, #-2144]	; 90dc <main+0x102c>
    9938:	e5933000 	ldr	r3, [r3]
    993c:	e51f1870 	ldr	r1, [pc, #-2160]	; 90d4 <main+0x1024>
    9940:	e59d24bc 	ldr	r2, [sp, #1212]	; 0x4bc
    9944:	e7812103 	str	r2, [r1, r3, lsl #2]
    9948:	e51f3874 	ldr	r3, [pc, #-2164]	; 90dc <main+0x102c>
    994c:	e5933000 	ldr	r3, [r3]
    9950:	e2833001 	add	r3, r3, #1
    9954:	e51f1888 	ldr	r1, [pc, #-2184]	; 90d4 <main+0x1024>
    9958:	e59d24b8 	ldr	r2, [sp, #1208]	; 0x4b8
    995c:	e7812103 	str	r2, [r1, r3, lsl #2]
    9960:	e51f388c 	ldr	r3, [pc, #-2188]	; 90dc <main+0x102c>
    9964:	e5933000 	ldr	r3, [r3]
    9968:	e2833002 	add	r3, r3, #2
    996c:	e51f18a0 	ldr	r1, [pc, #-2208]	; 90d4 <main+0x1024>
    9970:	e59d24b4 	ldr	r2, [sp, #1204]	; 0x4b4
    9974:	e7812103 	str	r2, [r1, r3, lsl #2]
    9978:	e51f38a4 	ldr	r3, [pc, #-2212]	; 90dc <main+0x102c>
    997c:	e5933000 	ldr	r3, [r3]
    9980:	e2833003 	add	r3, r3, #3
    9984:	e51f28b0 	ldr	r2, [pc, #-2224]	; 90dc <main+0x102c>
    9988:	e5823000 	str	r3, [r2]
    998c:	e51f38bc 	ldr	r3, [pc, #-2236]	; 90d8 <main+0x1028>
    9990:	e5933000 	ldr	r3, [r3]
    9994:	e3530003 	cmp	r3, #3
    9998:	da000039 	ble	9a84 <main+0x19d4>
    999c:	e51f38c8 	ldr	r3, [pc, #-2248]	; 90dc <main+0x102c>
    99a0:	e5933000 	ldr	r3, [r3]
    99a4:	e2833003 	add	r3, r3, #3
    99a8:	e3530006 	cmp	r3, #6
    99ac:	ca000034 	bgt	9a84 <main+0x19d4>
    99b0:	e51f38d8 	ldr	r3, [pc, #-2264]	; 90e0 <main+0x1030>
    99b4:	e5932004 	ldr	r2, [r3, #4]
    99b8:	e51f38e0 	ldr	r3, [pc, #-2272]	; 90e0 <main+0x1030>
    99bc:	e5933000 	ldr	r3, [r3]
    99c0:	e1520003 	cmp	r2, r3
    99c4:	1a00002e 	bne	9a84 <main+0x19d4>
    99c8:	e51f38f0 	ldr	r3, [pc, #-2288]	; 90e0 <main+0x1030>
    99cc:	e5932004 	ldr	r2, [r3, #4]
    99d0:	e51f38f8 	ldr	r3, [pc, #-2296]	; 90e0 <main+0x1030>
    99d4:	e5933008 	ldr	r3, [r3, #8]
    99d8:	e1520003 	cmp	r2, r3
    99dc:	1a000028 	bne	9a84 <main+0x19d4>
    99e0:	e51f3908 	ldr	r3, [pc, #-2312]	; 90e0 <main+0x1030>
    99e4:	e593300c 	ldr	r3, [r3, #12]
    99e8:	e58d34b0 	str	r3, [sp, #1200]	; 0x4b0
    99ec:	e51f3914 	ldr	r3, [pc, #-2324]	; 90e0 <main+0x1030>
    99f0:	e5933004 	ldr	r3, [r3, #4]
    99f4:	e58d34ac 	str	r3, [sp, #1196]	; 0x4ac
    99f8:	e59d24ac 	ldr	r2, [sp, #1196]	; 0x4ac
    99fc:	e59d34b0 	ldr	r3, [sp, #1200]	; 0x4b0
    9a00:	e1520003 	cmp	r2, r3
    9a04:	da00001e 	ble	9a84 <main+0x19d4>
    9a08:	e51f3938 	ldr	r3, [pc, #-2360]	; 90d8 <main+0x1028>
    9a0c:	e5933000 	ldr	r3, [r3]
    9a10:	e2433004 	sub	r3, r3, #4
    9a14:	e51f2944 	ldr	r2, [pc, #-2372]	; 90d8 <main+0x1028>
    9a18:	e5823000 	str	r3, [r2]
    9a1c:	e59d24b0 	ldr	r2, [sp, #1200]	; 0x4b0
    9a20:	e59d34ac 	ldr	r3, [sp, #1196]	; 0x4ac
    9a24:	e0823003 	add	r3, r2, r3
    9a28:	e58d34a8 	str	r3, [sp, #1192]	; 0x4a8
    9a2c:	e51f3958 	ldr	r3, [pc, #-2392]	; 90dc <main+0x102c>
    9a30:	e5933000 	ldr	r3, [r3]
    9a34:	e51f1968 	ldr	r1, [pc, #-2408]	; 90d4 <main+0x1024>
    9a38:	e59d24b0 	ldr	r2, [sp, #1200]	; 0x4b0
    9a3c:	e7812103 	str	r2, [r1, r3, lsl #2]
    9a40:	e51f396c 	ldr	r3, [pc, #-2412]	; 90dc <main+0x102c>
    9a44:	e5933000 	ldr	r3, [r3]
    9a48:	e2833001 	add	r3, r3, #1
    9a4c:	e51f1980 	ldr	r1, [pc, #-2432]	; 90d4 <main+0x1024>
    9a50:	e59d24ac 	ldr	r2, [sp, #1196]	; 0x4ac
    9a54:	e7812103 	str	r2, [r1, r3, lsl #2]
    9a58:	e51f3984 	ldr	r3, [pc, #-2436]	; 90dc <main+0x102c>
    9a5c:	e5933000 	ldr	r3, [r3]
    9a60:	e2833002 	add	r3, r3, #2
    9a64:	e51f1998 	ldr	r1, [pc, #-2456]	; 90d4 <main+0x1024>
    9a68:	e59d24a8 	ldr	r2, [sp, #1192]	; 0x4a8
    9a6c:	e7812103 	str	r2, [r1, r3, lsl #2]
    9a70:	e51f399c 	ldr	r3, [pc, #-2460]	; 90dc <main+0x102c>
    9a74:	e5933000 	ldr	r3, [r3]
    9a78:	e2833003 	add	r3, r3, #3
    9a7c:	e51f29a8 	ldr	r2, [pc, #-2472]	; 90dc <main+0x102c>
    9a80:	e5823000 	str	r3, [r2]
    9a84:	e51f39b4 	ldr	r3, [pc, #-2484]	; 90d8 <main+0x1028>
    9a88:	e5933000 	ldr	r3, [r3]
    9a8c:	e3530003 	cmp	r3, #3
    9a90:	da000039 	ble	9b7c <main+0x1acc>
    9a94:	e51f39c0 	ldr	r3, [pc, #-2496]	; 90dc <main+0x102c>
    9a98:	e5933000 	ldr	r3, [r3]
    9a9c:	e2833003 	add	r3, r3, #3
    9aa0:	e3530006 	cmp	r3, #6
    9aa4:	ca000034 	bgt	9b7c <main+0x1acc>
    9aa8:	e51f39d0 	ldr	r3, [pc, #-2512]	; 90e0 <main+0x1030>
    9aac:	e5932004 	ldr	r2, [r3, #4]
    9ab0:	e51f39d8 	ldr	r3, [pc, #-2520]	; 90e0 <main+0x1030>
    9ab4:	e5933008 	ldr	r3, [r3, #8]
    9ab8:	e1520003 	cmp	r2, r3
    9abc:	1a00002e 	bne	9b7c <main+0x1acc>
    9ac0:	e51f39e8 	ldr	r3, [pc, #-2536]	; 90e0 <main+0x1030>
    9ac4:	e5932004 	ldr	r2, [r3, #4]
    9ac8:	e51f39f0 	ldr	r3, [pc, #-2544]	; 90e0 <main+0x1030>
    9acc:	e5933000 	ldr	r3, [r3]
    9ad0:	e1520003 	cmp	r2, r3
    9ad4:	1a000028 	bne	9b7c <main+0x1acc>
    9ad8:	e51f3a00 	ldr	r3, [pc, #-2560]	; 90e0 <main+0x1030>
    9adc:	e593300c 	ldr	r3, [r3, #12]
    9ae0:	e58d34a4 	str	r3, [sp, #1188]	; 0x4a4
    9ae4:	e51f3a0c 	ldr	r3, [pc, #-2572]	; 90e0 <main+0x1030>
    9ae8:	e5933004 	ldr	r3, [r3, #4]
    9aec:	e58d34a0 	str	r3, [sp, #1184]	; 0x4a0
    9af0:	e59d24a0 	ldr	r2, [sp, #1184]	; 0x4a0
    9af4:	e59d34a4 	ldr	r3, [sp, #1188]	; 0x4a4
    9af8:	e1520003 	cmp	r2, r3
    9afc:	da00001e 	ble	9b7c <main+0x1acc>
    9b00:	e51f3a30 	ldr	r3, [pc, #-2608]	; 90d8 <main+0x1028>
    9b04:	e5933000 	ldr	r3, [r3]
    9b08:	e2433004 	sub	r3, r3, #4
    9b0c:	e51f2a3c 	ldr	r2, [pc, #-2620]	; 90d8 <main+0x1028>
    9b10:	e5823000 	str	r3, [r2]
    9b14:	e59d24a4 	ldr	r2, [sp, #1188]	; 0x4a4
    9b18:	e59d34a0 	ldr	r3, [sp, #1184]	; 0x4a0
    9b1c:	e0823003 	add	r3, r2, r3
    9b20:	e58d349c 	str	r3, [sp, #1180]	; 0x49c
    9b24:	e51f3a50 	ldr	r3, [pc, #-2640]	; 90dc <main+0x102c>
    9b28:	e5933000 	ldr	r3, [r3]
    9b2c:	e51f1a60 	ldr	r1, [pc, #-2656]	; 90d4 <main+0x1024>
    9b30:	e59d24a4 	ldr	r2, [sp, #1188]	; 0x4a4
    9b34:	e7812103 	str	r2, [r1, r3, lsl #2]
    9b38:	e51f3a64 	ldr	r3, [pc, #-2660]	; 90dc <main+0x102c>
    9b3c:	e5933000 	ldr	r3, [r3]
    9b40:	e2833001 	add	r3, r3, #1
    9b44:	e51f1a78 	ldr	r1, [pc, #-2680]	; 90d4 <main+0x1024>
    9b48:	e59d24a0 	ldr	r2, [sp, #1184]	; 0x4a0
    9b4c:	e7812103 	str	r2, [r1, r3, lsl #2]
    9b50:	e51f3a7c 	ldr	r3, [pc, #-2684]	; 90dc <main+0x102c>
    9b54:	e5933000 	ldr	r3, [r3]
    9b58:	e2833002 	add	r3, r3, #2
    9b5c:	e51f1a90 	ldr	r1, [pc, #-2704]	; 90d4 <main+0x1024>
    9b60:	e59d249c 	ldr	r2, [sp, #1180]	; 0x49c
    9b64:	e7812103 	str	r2, [r1, r3, lsl #2]
    9b68:	e51f3a94 	ldr	r3, [pc, #-2708]	; 90dc <main+0x102c>
    9b6c:	e5933000 	ldr	r3, [r3]
    9b70:	e2833003 	add	r3, r3, #3
    9b74:	e51f2aa0 	ldr	r2, [pc, #-2720]	; 90dc <main+0x102c>
    9b78:	e5823000 	str	r3, [r2]
    9b7c:	e51f3aac 	ldr	r3, [pc, #-2732]	; 90d8 <main+0x1028>
    9b80:	e5933000 	ldr	r3, [r3]
    9b84:	e3530003 	cmp	r3, #3
    9b88:	da000039 	ble	9c74 <main+0x1bc4>
    9b8c:	e51f3ab8 	ldr	r3, [pc, #-2744]	; 90dc <main+0x102c>
    9b90:	e5933000 	ldr	r3, [r3]
    9b94:	e2833003 	add	r3, r3, #3
    9b98:	e3530006 	cmp	r3, #6
    9b9c:	ca000034 	bgt	9c74 <main+0x1bc4>
    9ba0:	e51f3ac8 	ldr	r3, [pc, #-2760]	; 90e0 <main+0x1030>
    9ba4:	e5932008 	ldr	r2, [r3, #8]
    9ba8:	e51f3ad0 	ldr	r3, [pc, #-2768]	; 90e0 <main+0x1030>
    9bac:	e5933000 	ldr	r3, [r3]
    9bb0:	e1520003 	cmp	r2, r3
    9bb4:	1a00002e 	bne	9c74 <main+0x1bc4>
    9bb8:	e51f3ae0 	ldr	r3, [pc, #-2784]	; 90e0 <main+0x1030>
    9bbc:	e5932008 	ldr	r2, [r3, #8]
    9bc0:	e51f3ae8 	ldr	r3, [pc, #-2792]	; 90e0 <main+0x1030>
    9bc4:	e5933004 	ldr	r3, [r3, #4]
    9bc8:	e1520003 	cmp	r2, r3
    9bcc:	1a000028 	bne	9c74 <main+0x1bc4>
    9bd0:	e51f3af8 	ldr	r3, [pc, #-2808]	; 90e0 <main+0x1030>
    9bd4:	e593300c 	ldr	r3, [r3, #12]
    9bd8:	e58d3498 	str	r3, [sp, #1176]	; 0x498
    9bdc:	e51f3b04 	ldr	r3, [pc, #-2820]	; 90e0 <main+0x1030>
    9be0:	e5933008 	ldr	r3, [r3, #8]
    9be4:	e58d3494 	str	r3, [sp, #1172]	; 0x494
    9be8:	e59d2494 	ldr	r2, [sp, #1172]	; 0x494
    9bec:	e59d3498 	ldr	r3, [sp, #1176]	; 0x498
    9bf0:	e1520003 	cmp	r2, r3
    9bf4:	da00001e 	ble	9c74 <main+0x1bc4>
    9bf8:	e51f3b28 	ldr	r3, [pc, #-2856]	; 90d8 <main+0x1028>
    9bfc:	e5933000 	ldr	r3, [r3]
    9c00:	e2433004 	sub	r3, r3, #4
    9c04:	e51f2b34 	ldr	r2, [pc, #-2868]	; 90d8 <main+0x1028>
    9c08:	e5823000 	str	r3, [r2]
    9c0c:	e59d2498 	ldr	r2, [sp, #1176]	; 0x498
    9c10:	e59d3494 	ldr	r3, [sp, #1172]	; 0x494
    9c14:	e0823003 	add	r3, r2, r3
    9c18:	e58d3490 	str	r3, [sp, #1168]	; 0x490
    9c1c:	e51f3b48 	ldr	r3, [pc, #-2888]	; 90dc <main+0x102c>
    9c20:	e5933000 	ldr	r3, [r3]
    9c24:	e51f1b58 	ldr	r1, [pc, #-2904]	; 90d4 <main+0x1024>
    9c28:	e59d2498 	ldr	r2, [sp, #1176]	; 0x498
    9c2c:	e7812103 	str	r2, [r1, r3, lsl #2]
    9c30:	e51f3b5c 	ldr	r3, [pc, #-2908]	; 90dc <main+0x102c>
    9c34:	e5933000 	ldr	r3, [r3]
    9c38:	e2833001 	add	r3, r3, #1
    9c3c:	e51f1b70 	ldr	r1, [pc, #-2928]	; 90d4 <main+0x1024>
    9c40:	e59d2494 	ldr	r2, [sp, #1172]	; 0x494
    9c44:	e7812103 	str	r2, [r1, r3, lsl #2]
    9c48:	e51f3b74 	ldr	r3, [pc, #-2932]	; 90dc <main+0x102c>
    9c4c:	e5933000 	ldr	r3, [r3]
    9c50:	e2833002 	add	r3, r3, #2
    9c54:	e51f1b88 	ldr	r1, [pc, #-2952]	; 90d4 <main+0x1024>
    9c58:	e59d2490 	ldr	r2, [sp, #1168]	; 0x490
    9c5c:	e7812103 	str	r2, [r1, r3, lsl #2]
    9c60:	e51f3b8c 	ldr	r3, [pc, #-2956]	; 90dc <main+0x102c>
    9c64:	e5933000 	ldr	r3, [r3]
    9c68:	e2833003 	add	r3, r3, #3
    9c6c:	e51f2b98 	ldr	r2, [pc, #-2968]	; 90dc <main+0x102c>
    9c70:	e5823000 	str	r3, [r2]
    9c74:	e51f3ba4 	ldr	r3, [pc, #-2980]	; 90d8 <main+0x1028>
    9c78:	e5933000 	ldr	r3, [r3]
    9c7c:	e3530003 	cmp	r3, #3
    9c80:	da000039 	ble	9d6c <main+0x1cbc>
    9c84:	e51f3bb0 	ldr	r3, [pc, #-2992]	; 90dc <main+0x102c>
    9c88:	e5933000 	ldr	r3, [r3]
    9c8c:	e2833003 	add	r3, r3, #3
    9c90:	e3530006 	cmp	r3, #6
    9c94:	ca000034 	bgt	9d6c <main+0x1cbc>
    9c98:	e51f3bc0 	ldr	r3, [pc, #-3008]	; 90e0 <main+0x1030>
    9c9c:	e5932008 	ldr	r2, [r3, #8]
    9ca0:	e51f3bc8 	ldr	r3, [pc, #-3016]	; 90e0 <main+0x1030>
    9ca4:	e5933004 	ldr	r3, [r3, #4]
    9ca8:	e1520003 	cmp	r2, r3
    9cac:	1a00002e 	bne	9d6c <main+0x1cbc>
    9cb0:	e51f3bd8 	ldr	r3, [pc, #-3032]	; 90e0 <main+0x1030>
    9cb4:	e5932008 	ldr	r2, [r3, #8]
    9cb8:	e51f3be0 	ldr	r3, [pc, #-3040]	; 90e0 <main+0x1030>
    9cbc:	e5933000 	ldr	r3, [r3]
    9cc0:	e1520003 	cmp	r2, r3
    9cc4:	1a000028 	bne	9d6c <main+0x1cbc>
    9cc8:	e51f3bf0 	ldr	r3, [pc, #-3056]	; 90e0 <main+0x1030>
    9ccc:	e593300c 	ldr	r3, [r3, #12]
    9cd0:	e58d348c 	str	r3, [sp, #1164]	; 0x48c
    9cd4:	e51f3bfc 	ldr	r3, [pc, #-3068]	; 90e0 <main+0x1030>
    9cd8:	e5933008 	ldr	r3, [r3, #8]
    9cdc:	e58d3488 	str	r3, [sp, #1160]	; 0x488
    9ce0:	e59d2488 	ldr	r2, [sp, #1160]	; 0x488
    9ce4:	e59d348c 	ldr	r3, [sp, #1164]	; 0x48c
    9ce8:	e1520003 	cmp	r2, r3
    9cec:	da00001e 	ble	9d6c <main+0x1cbc>
    9cf0:	e51f3c20 	ldr	r3, [pc, #-3104]	; 90d8 <main+0x1028>
    9cf4:	e5933000 	ldr	r3, [r3]
    9cf8:	e2433004 	sub	r3, r3, #4
    9cfc:	e51f2c2c 	ldr	r2, [pc, #-3116]	; 90d8 <main+0x1028>
    9d00:	e5823000 	str	r3, [r2]
    9d04:	e59d248c 	ldr	r2, [sp, #1164]	; 0x48c
    9d08:	e59d3488 	ldr	r3, [sp, #1160]	; 0x488
    9d0c:	e0823003 	add	r3, r2, r3
    9d10:	e58d3484 	str	r3, [sp, #1156]	; 0x484
    9d14:	e51f3c40 	ldr	r3, [pc, #-3136]	; 90dc <main+0x102c>
    9d18:	e5933000 	ldr	r3, [r3]
    9d1c:	e51f1c50 	ldr	r1, [pc, #-3152]	; 90d4 <main+0x1024>
    9d20:	e59d248c 	ldr	r2, [sp, #1164]	; 0x48c
    9d24:	e7812103 	str	r2, [r1, r3, lsl #2]
    9d28:	e51f3c54 	ldr	r3, [pc, #-3156]	; 90dc <main+0x102c>
    9d2c:	e5933000 	ldr	r3, [r3]
    9d30:	e2833001 	add	r3, r3, #1
    9d34:	e51f1c68 	ldr	r1, [pc, #-3176]	; 90d4 <main+0x1024>
    9d38:	e59d2488 	ldr	r2, [sp, #1160]	; 0x488
    9d3c:	e7812103 	str	r2, [r1, r3, lsl #2]
    9d40:	e51f3c6c 	ldr	r3, [pc, #-3180]	; 90dc <main+0x102c>
    9d44:	e5933000 	ldr	r3, [r3]
    9d48:	e2833002 	add	r3, r3, #2
    9d4c:	e51f1c80 	ldr	r1, [pc, #-3200]	; 90d4 <main+0x1024>
    9d50:	e59d2484 	ldr	r2, [sp, #1156]	; 0x484
    9d54:	e7812103 	str	r2, [r1, r3, lsl #2]
    9d58:	e51f3c84 	ldr	r3, [pc, #-3204]	; 90dc <main+0x102c>
    9d5c:	e5933000 	ldr	r3, [r3]
    9d60:	e2833003 	add	r3, r3, #3
    9d64:	e51f2c90 	ldr	r2, [pc, #-3216]	; 90dc <main+0x102c>
    9d68:	e5823000 	str	r3, [r2]
    9d6c:	e51f3c9c 	ldr	r3, [pc, #-3228]	; 90d8 <main+0x1028>
    9d70:	e5933000 	ldr	r3, [r3]
    9d74:	e3530004 	cmp	r3, #4
    9d78:	da00003d 	ble	9e74 <main+0x1dc4>
    9d7c:	e51f3ca8 	ldr	r3, [pc, #-3240]	; 90dc <main+0x102c>
    9d80:	e5933000 	ldr	r3, [r3]
    9d84:	e2833003 	add	r3, r3, #3
    9d88:	e3530006 	cmp	r3, #6
    9d8c:	ca000038 	bgt	9e74 <main+0x1dc4>
    9d90:	e51f3cb8 	ldr	r3, [pc, #-3256]	; 90e0 <main+0x1030>
    9d94:	e5932004 	ldr	r2, [r3, #4]
    9d98:	e51f3cc0 	ldr	r3, [pc, #-3264]	; 90e0 <main+0x1030>
    9d9c:	e5933008 	ldr	r3, [r3, #8]
    9da0:	e1520003 	cmp	r2, r3
    9da4:	1a000032 	bne	9e74 <main+0x1dc4>
    9da8:	e51f3cd0 	ldr	r3, [pc, #-3280]	; 90e0 <main+0x1030>
    9dac:	e5932004 	ldr	r2, [r3, #4]
    9db0:	e51f3cd8 	ldr	r3, [pc, #-3288]	; 90e0 <main+0x1030>
    9db4:	e5933010 	ldr	r3, [r3, #16]
    9db8:	e1520003 	cmp	r2, r3
    9dbc:	1a00002c 	bne	9e74 <main+0x1dc4>
    9dc0:	e51f3ce8 	ldr	r3, [pc, #-3304]	; 90e0 <main+0x1030>
    9dc4:	e5933000 	ldr	r3, [r3]
    9dc8:	e58d3480 	str	r3, [sp, #1152]	; 0x480
    9dcc:	e51f3cf4 	ldr	r3, [pc, #-3316]	; 90e0 <main+0x1030>
    9dd0:	e5933004 	ldr	r3, [r3, #4]
    9dd4:	e58d347c 	str	r3, [sp, #1148]	; 0x47c
    9dd8:	e59d247c 	ldr	r2, [sp, #1148]	; 0x47c
    9ddc:	e59d3480 	ldr	r3, [sp, #1152]	; 0x480
    9de0:	e1520003 	cmp	r2, r3
    9de4:	da000022 	ble	9e74 <main+0x1dc4>
    9de8:	e51f3d10 	ldr	r3, [pc, #-3344]	; 90e0 <main+0x1030>
    9dec:	e593300c 	ldr	r3, [r3, #12]
    9df0:	e51f2d18 	ldr	r2, [pc, #-3352]	; 90e0 <main+0x1030>
    9df4:	e5823000 	str	r3, [r2]
    9df8:	e51f3d28 	ldr	r3, [pc, #-3368]	; 90d8 <main+0x1028>
    9dfc:	e5933000 	ldr	r3, [r3]
    9e00:	e2433004 	sub	r3, r3, #4
    9e04:	e51f2d34 	ldr	r2, [pc, #-3380]	; 90d8 <main+0x1028>
    9e08:	e5823000 	str	r3, [r2]
    9e0c:	e59d2480 	ldr	r2, [sp, #1152]	; 0x480
    9e10:	e59d347c 	ldr	r3, [sp, #1148]	; 0x47c
    9e14:	e0823003 	add	r3, r2, r3
    9e18:	e58d3478 	str	r3, [sp, #1144]	; 0x478
    9e1c:	e51f3d48 	ldr	r3, [pc, #-3400]	; 90dc <main+0x102c>
    9e20:	e5933000 	ldr	r3, [r3]
    9e24:	e51f1d58 	ldr	r1, [pc, #-3416]	; 90d4 <main+0x1024>
    9e28:	e59d2480 	ldr	r2, [sp, #1152]	; 0x480
    9e2c:	e7812103 	str	r2, [r1, r3, lsl #2]
    9e30:	e51f3d5c 	ldr	r3, [pc, #-3420]	; 90dc <main+0x102c>
    9e34:	e5933000 	ldr	r3, [r3]
    9e38:	e2833001 	add	r3, r3, #1
    9e3c:	e51f1d70 	ldr	r1, [pc, #-3440]	; 90d4 <main+0x1024>
    9e40:	e59d247c 	ldr	r2, [sp, #1148]	; 0x47c
    9e44:	e7812103 	str	r2, [r1, r3, lsl #2]
    9e48:	e51f3d74 	ldr	r3, [pc, #-3444]	; 90dc <main+0x102c>
    9e4c:	e5933000 	ldr	r3, [r3]
    9e50:	e2833002 	add	r3, r3, #2
    9e54:	e51f1d88 	ldr	r1, [pc, #-3464]	; 90d4 <main+0x1024>
    9e58:	e59d2478 	ldr	r2, [sp, #1144]	; 0x478
    9e5c:	e7812103 	str	r2, [r1, r3, lsl #2]
    9e60:	e51f3d8c 	ldr	r3, [pc, #-3468]	; 90dc <main+0x102c>
    9e64:	e5933000 	ldr	r3, [r3]
    9e68:	e2833003 	add	r3, r3, #3
    9e6c:	e51f2d98 	ldr	r2, [pc, #-3480]	; 90dc <main+0x102c>
    9e70:	e5823000 	str	r3, [r2]
    9e74:	e51f3da4 	ldr	r3, [pc, #-3492]	; 90d8 <main+0x1028>
    9e78:	e5933000 	ldr	r3, [r3]
    9e7c:	e3530004 	cmp	r3, #4
    9e80:	da00003d 	ble	9f7c <main+0x1ecc>
    9e84:	e51f3db0 	ldr	r3, [pc, #-3504]	; 90dc <main+0x102c>
    9e88:	e5933000 	ldr	r3, [r3]
    9e8c:	e2833003 	add	r3, r3, #3
    9e90:	e3530006 	cmp	r3, #6
    9e94:	ca000038 	bgt	9f7c <main+0x1ecc>
    9e98:	e51f3dc0 	ldr	r3, [pc, #-3520]	; 90e0 <main+0x1030>
    9e9c:	e5932004 	ldr	r2, [r3, #4]
    9ea0:	e51f3dc8 	ldr	r3, [pc, #-3528]	; 90e0 <main+0x1030>
    9ea4:	e593300c 	ldr	r3, [r3, #12]
    9ea8:	e1520003 	cmp	r2, r3
    9eac:	1a000032 	bne	9f7c <main+0x1ecc>
    9eb0:	e51f3dd8 	ldr	r3, [pc, #-3544]	; 90e0 <main+0x1030>
    9eb4:	e5932004 	ldr	r2, [r3, #4]
    9eb8:	e51f3de0 	ldr	r3, [pc, #-3552]	; 90e0 <main+0x1030>
    9ebc:	e5933010 	ldr	r3, [r3, #16]
    9ec0:	e1520003 	cmp	r2, r3
    9ec4:	1a00002c 	bne	9f7c <main+0x1ecc>
    9ec8:	e51f3df0 	ldr	r3, [pc, #-3568]	; 90e0 <main+0x1030>
    9ecc:	e5933000 	ldr	r3, [r3]
    9ed0:	e58d3474 	str	r3, [sp, #1140]	; 0x474
    9ed4:	e51f3dfc 	ldr	r3, [pc, #-3580]	; 90e0 <main+0x1030>
    9ed8:	e5933004 	ldr	r3, [r3, #4]
    9edc:	e58d3470 	str	r3, [sp, #1136]	; 0x470
    9ee0:	e59d2470 	ldr	r2, [sp, #1136]	; 0x470
    9ee4:	e59d3474 	ldr	r3, [sp, #1140]	; 0x474
    9ee8:	e1520003 	cmp	r2, r3
    9eec:	da000022 	ble	9f7c <main+0x1ecc>
    9ef0:	e51f3e18 	ldr	r3, [pc, #-3608]	; 90e0 <main+0x1030>
    9ef4:	e5933008 	ldr	r3, [r3, #8]
    9ef8:	e51f2e20 	ldr	r2, [pc, #-3616]	; 90e0 <main+0x1030>
    9efc:	e5823000 	str	r3, [r2]
    9f00:	e51f3e30 	ldr	r3, [pc, #-3632]	; 90d8 <main+0x1028>
    9f04:	e5933000 	ldr	r3, [r3]
    9f08:	e2433004 	sub	r3, r3, #4
    9f0c:	e51f2e3c 	ldr	r2, [pc, #-3644]	; 90d8 <main+0x1028>
    9f10:	e5823000 	str	r3, [r2]
    9f14:	e59d2474 	ldr	r2, [sp, #1140]	; 0x474
    9f18:	e59d3470 	ldr	r3, [sp, #1136]	; 0x470
    9f1c:	e0823003 	add	r3, r2, r3
    9f20:	e58d346c 	str	r3, [sp, #1132]	; 0x46c
    9f24:	e51f3e50 	ldr	r3, [pc, #-3664]	; 90dc <main+0x102c>
    9f28:	e5933000 	ldr	r3, [r3]
    9f2c:	e51f1e60 	ldr	r1, [pc, #-3680]	; 90d4 <main+0x1024>
    9f30:	e59d2474 	ldr	r2, [sp, #1140]	; 0x474
    9f34:	e7812103 	str	r2, [r1, r3, lsl #2]
    9f38:	e51f3e64 	ldr	r3, [pc, #-3684]	; 90dc <main+0x102c>
    9f3c:	e5933000 	ldr	r3, [r3]
    9f40:	e2833001 	add	r3, r3, #1
    9f44:	e51f1e78 	ldr	r1, [pc, #-3704]	; 90d4 <main+0x1024>
    9f48:	e59d2470 	ldr	r2, [sp, #1136]	; 0x470
    9f4c:	e7812103 	str	r2, [r1, r3, lsl #2]
    9f50:	e51f3e7c 	ldr	r3, [pc, #-3708]	; 90dc <main+0x102c>
    9f54:	e5933000 	ldr	r3, [r3]
    9f58:	e2833002 	add	r3, r3, #2
    9f5c:	e51f1e90 	ldr	r1, [pc, #-3728]	; 90d4 <main+0x1024>
    9f60:	e59d246c 	ldr	r2, [sp, #1132]	; 0x46c
    9f64:	e7812103 	str	r2, [r1, r3, lsl #2]
    9f68:	e51f3e94 	ldr	r3, [pc, #-3732]	; 90dc <main+0x102c>
    9f6c:	e5933000 	ldr	r3, [r3]
    9f70:	e2833003 	add	r3, r3, #3
    9f74:	e51f2ea0 	ldr	r2, [pc, #-3744]	; 90dc <main+0x102c>
    9f78:	e5823000 	str	r3, [r2]
    9f7c:	e51f3eac 	ldr	r3, [pc, #-3756]	; 90d8 <main+0x1028>
    9f80:	e5933000 	ldr	r3, [r3]
    9f84:	e3530004 	cmp	r3, #4
    9f88:	da00003d 	ble	a084 <main+0x1fd4>
    9f8c:	e51f3eb8 	ldr	r3, [pc, #-3768]	; 90dc <main+0x102c>
    9f90:	e5933000 	ldr	r3, [r3]
    9f94:	e2833003 	add	r3, r3, #3
    9f98:	e3530006 	cmp	r3, #6
    9f9c:	ca000038 	bgt	a084 <main+0x1fd4>
    9fa0:	e51f3ec8 	ldr	r3, [pc, #-3784]	; 90e0 <main+0x1030>
    9fa4:	e5932004 	ldr	r2, [r3, #4]
    9fa8:	e51f3ed0 	ldr	r3, [pc, #-3792]	; 90e0 <main+0x1030>
    9fac:	e5933010 	ldr	r3, [r3, #16]
    9fb0:	e1520003 	cmp	r2, r3
    9fb4:	1a000032 	bne	a084 <main+0x1fd4>
    9fb8:	e51f3ee0 	ldr	r3, [pc, #-3808]	; 90e0 <main+0x1030>
    9fbc:	e5932004 	ldr	r2, [r3, #4]
    9fc0:	e51f3ee8 	ldr	r3, [pc, #-3816]	; 90e0 <main+0x1030>
    9fc4:	e5933008 	ldr	r3, [r3, #8]
    9fc8:	e1520003 	cmp	r2, r3
    9fcc:	1a00002c 	bne	a084 <main+0x1fd4>
    9fd0:	e51f3ef8 	ldr	r3, [pc, #-3832]	; 90e0 <main+0x1030>
    9fd4:	e5933000 	ldr	r3, [r3]
    9fd8:	e58d3468 	str	r3, [sp, #1128]	; 0x468
    9fdc:	e51f3f04 	ldr	r3, [pc, #-3844]	; 90e0 <main+0x1030>
    9fe0:	e5933004 	ldr	r3, [r3, #4]
    9fe4:	e58d3464 	str	r3, [sp, #1124]	; 0x464
    9fe8:	e59d2464 	ldr	r2, [sp, #1124]	; 0x464
    9fec:	e59d3468 	ldr	r3, [sp, #1128]	; 0x468
    9ff0:	e1520003 	cmp	r2, r3
    9ff4:	da000022 	ble	a084 <main+0x1fd4>
    9ff8:	e51f3f20 	ldr	r3, [pc, #-3872]	; 90e0 <main+0x1030>
    9ffc:	e593300c 	ldr	r3, [r3, #12]
    a000:	e51f2f28 	ldr	r2, [pc, #-3880]	; 90e0 <main+0x1030>
    a004:	e5823000 	str	r3, [r2]
    a008:	e51f3f38 	ldr	r3, [pc, #-3896]	; 90d8 <main+0x1028>
    a00c:	e5933000 	ldr	r3, [r3]
    a010:	e2433004 	sub	r3, r3, #4
    a014:	e51f2f44 	ldr	r2, [pc, #-3908]	; 90d8 <main+0x1028>
    a018:	e5823000 	str	r3, [r2]
    a01c:	e59d2468 	ldr	r2, [sp, #1128]	; 0x468
    a020:	e59d3464 	ldr	r3, [sp, #1124]	; 0x464
    a024:	e0823003 	add	r3, r2, r3
    a028:	e58d3460 	str	r3, [sp, #1120]	; 0x460
    a02c:	e51f3f58 	ldr	r3, [pc, #-3928]	; 90dc <main+0x102c>
    a030:	e5933000 	ldr	r3, [r3]
    a034:	e51f1f68 	ldr	r1, [pc, #-3944]	; 90d4 <main+0x1024>
    a038:	e59d2468 	ldr	r2, [sp, #1128]	; 0x468
    a03c:	e7812103 	str	r2, [r1, r3, lsl #2]
    a040:	e51f3f6c 	ldr	r3, [pc, #-3948]	; 90dc <main+0x102c>
    a044:	e5933000 	ldr	r3, [r3]
    a048:	e2833001 	add	r3, r3, #1
    a04c:	e51f1f80 	ldr	r1, [pc, #-3968]	; 90d4 <main+0x1024>
    a050:	e59d2464 	ldr	r2, [sp, #1124]	; 0x464
    a054:	e7812103 	str	r2, [r1, r3, lsl #2]
    a058:	e51f3f84 	ldr	r3, [pc, #-3972]	; 90dc <main+0x102c>
    a05c:	e5933000 	ldr	r3, [r3]
    a060:	e2833002 	add	r3, r3, #2
    a064:	e51f1f98 	ldr	r1, [pc, #-3992]	; 90d4 <main+0x1024>
    a068:	e59d2460 	ldr	r2, [sp, #1120]	; 0x460
    a06c:	e7812103 	str	r2, [r1, r3, lsl #2]
    a070:	e51f3f9c 	ldr	r3, [pc, #-3996]	; 90dc <main+0x102c>
    a074:	e5933000 	ldr	r3, [r3]
    a078:	e2833003 	add	r3, r3, #3
    a07c:	e51f2fa8 	ldr	r2, [pc, #-4008]	; 90dc <main+0x102c>
    a080:	e5823000 	str	r3, [r2]
    a084:	e51f3fb4 	ldr	r3, [pc, #-4020]	; 90d8 <main+0x1028>
    a088:	e5933000 	ldr	r3, [r3]
    a08c:	e3530004 	cmp	r3, #4
    a090:	da00003d 	ble	a18c <main+0x20dc>
    a094:	e51f3fc0 	ldr	r3, [pc, #-4032]	; 90dc <main+0x102c>
    a098:	e5933000 	ldr	r3, [r3]
    a09c:	e2833003 	add	r3, r3, #3
    a0a0:	e3530006 	cmp	r3, #6
    a0a4:	ca000038 	bgt	a18c <main+0x20dc>
    a0a8:	e51f3fd0 	ldr	r3, [pc, #-4048]	; 90e0 <main+0x1030>
    a0ac:	e5932004 	ldr	r2, [r3, #4]
    a0b0:	e51f3fd8 	ldr	r3, [pc, #-4056]	; 90e0 <main+0x1030>
    a0b4:	e5933010 	ldr	r3, [r3, #16]
    a0b8:	e1520003 	cmp	r2, r3
    a0bc:	1a000032 	bne	a18c <main+0x20dc>
    a0c0:	e51f3fe8 	ldr	r3, [pc, #-4072]	; 90e0 <main+0x1030>
    a0c4:	e5932004 	ldr	r2, [r3, #4]
    a0c8:	e51f3ff0 	ldr	r3, [pc, #-4080]	; 90e0 <main+0x1030>
    a0cc:	e593300c 	ldr	r3, [r3, #12]
    a0d0:	e1520003 	cmp	r2, r3
    a0d4:	1a00002c 	bne	a18c <main+0x20dc>
    a0d8:	e59f3ff8 	ldr	r3, [pc, #4088]	; b0d8 <main+0x3028>
    a0dc:	e5933000 	ldr	r3, [r3]
    a0e0:	e58d345c 	str	r3, [sp, #1116]	; 0x45c
    a0e4:	e59f3fec 	ldr	r3, [pc, #4076]	; b0d8 <main+0x3028>
    a0e8:	e5933004 	ldr	r3, [r3, #4]
    a0ec:	e58d3458 	str	r3, [sp, #1112]	; 0x458
    a0f0:	e59d2458 	ldr	r2, [sp, #1112]	; 0x458
    a0f4:	e59d345c 	ldr	r3, [sp, #1116]	; 0x45c
    a0f8:	e1520003 	cmp	r2, r3
    a0fc:	da000022 	ble	a18c <main+0x20dc>
    a100:	e59f3fd0 	ldr	r3, [pc, #4048]	; b0d8 <main+0x3028>
    a104:	e5933008 	ldr	r3, [r3, #8]
    a108:	e59f2fc8 	ldr	r2, [pc, #4040]	; b0d8 <main+0x3028>
    a10c:	e5823000 	str	r3, [r2]
    a110:	e59f3fd0 	ldr	r3, [pc, #4048]	; b0e8 <main+0x3038>
    a114:	e5933000 	ldr	r3, [r3]
    a118:	e2433004 	sub	r3, r3, #4
    a11c:	e59f2fc4 	ldr	r2, [pc, #4036]	; b0e8 <main+0x3038>
    a120:	e5823000 	str	r3, [r2]
    a124:	e59d245c 	ldr	r2, [sp, #1116]	; 0x45c
    a128:	e59d3458 	ldr	r3, [sp, #1112]	; 0x458
    a12c:	e0823003 	add	r3, r2, r3
    a130:	e58d3454 	str	r3, [sp, #1108]	; 0x454
    a134:	e59f3fa4 	ldr	r3, [pc, #4004]	; b0e0 <main+0x3030>
    a138:	e5933000 	ldr	r3, [r3]
    a13c:	e59f1f98 	ldr	r1, [pc, #3992]	; b0dc <main+0x302c>
    a140:	e59d245c 	ldr	r2, [sp, #1116]	; 0x45c
    a144:	e7812103 	str	r2, [r1, r3, lsl #2]
    a148:	e59f3f90 	ldr	r3, [pc, #3984]	; b0e0 <main+0x3030>
    a14c:	e5933000 	ldr	r3, [r3]
    a150:	e2833001 	add	r3, r3, #1
    a154:	e59f1f80 	ldr	r1, [pc, #3968]	; b0dc <main+0x302c>
    a158:	e59d2458 	ldr	r2, [sp, #1112]	; 0x458
    a15c:	e7812103 	str	r2, [r1, r3, lsl #2]
    a160:	e59f3f78 	ldr	r3, [pc, #3960]	; b0e0 <main+0x3030>
    a164:	e5933000 	ldr	r3, [r3]
    a168:	e2833002 	add	r3, r3, #2
    a16c:	e59f1f68 	ldr	r1, [pc, #3944]	; b0dc <main+0x302c>
    a170:	e59d2454 	ldr	r2, [sp, #1108]	; 0x454
    a174:	e7812103 	str	r2, [r1, r3, lsl #2]
    a178:	e59f3f60 	ldr	r3, [pc, #3936]	; b0e0 <main+0x3030>
    a17c:	e5933000 	ldr	r3, [r3]
    a180:	e2833003 	add	r3, r3, #3
    a184:	e59f2f54 	ldr	r2, [pc, #3924]	; b0e0 <main+0x3030>
    a188:	e5823000 	str	r3, [r2]
    a18c:	e59f3f54 	ldr	r3, [pc, #3924]	; b0e8 <main+0x3038>
    a190:	e5933000 	ldr	r3, [r3]
    a194:	e3530004 	cmp	r3, #4
    a198:	da00003d 	ble	a294 <main+0x21e4>
    a19c:	e59f3f3c 	ldr	r3, [pc, #3900]	; b0e0 <main+0x3030>
    a1a0:	e5933000 	ldr	r3, [r3]
    a1a4:	e2833003 	add	r3, r3, #3
    a1a8:	e3530006 	cmp	r3, #6
    a1ac:	ca000038 	bgt	a294 <main+0x21e4>
    a1b0:	e59f3f20 	ldr	r3, [pc, #3872]	; b0d8 <main+0x3028>
    a1b4:	e5932008 	ldr	r2, [r3, #8]
    a1b8:	e59f3f18 	ldr	r3, [pc, #3864]	; b0d8 <main+0x3028>
    a1bc:	e5933004 	ldr	r3, [r3, #4]
    a1c0:	e1520003 	cmp	r2, r3
    a1c4:	1a000032 	bne	a294 <main+0x21e4>
    a1c8:	e59f3f08 	ldr	r3, [pc, #3848]	; b0d8 <main+0x3028>
    a1cc:	e5932008 	ldr	r2, [r3, #8]
    a1d0:	e59f3f00 	ldr	r3, [pc, #3840]	; b0d8 <main+0x3028>
    a1d4:	e5933010 	ldr	r3, [r3, #16]
    a1d8:	e1520003 	cmp	r2, r3
    a1dc:	1a00002c 	bne	a294 <main+0x21e4>
    a1e0:	e59f3ef0 	ldr	r3, [pc, #3824]	; b0d8 <main+0x3028>
    a1e4:	e5933000 	ldr	r3, [r3]
    a1e8:	e58d3450 	str	r3, [sp, #1104]	; 0x450
    a1ec:	e59f3ee4 	ldr	r3, [pc, #3812]	; b0d8 <main+0x3028>
    a1f0:	e5933008 	ldr	r3, [r3, #8]
    a1f4:	e58d344c 	str	r3, [sp, #1100]	; 0x44c
    a1f8:	e59d244c 	ldr	r2, [sp, #1100]	; 0x44c
    a1fc:	e59d3450 	ldr	r3, [sp, #1104]	; 0x450
    a200:	e1520003 	cmp	r2, r3
    a204:	da000022 	ble	a294 <main+0x21e4>
    a208:	e59f3ec8 	ldr	r3, [pc, #3784]	; b0d8 <main+0x3028>
    a20c:	e593300c 	ldr	r3, [r3, #12]
    a210:	e59f2ec0 	ldr	r2, [pc, #3776]	; b0d8 <main+0x3028>
    a214:	e5823000 	str	r3, [r2]
    a218:	e59f3ec8 	ldr	r3, [pc, #3784]	; b0e8 <main+0x3038>
    a21c:	e5933000 	ldr	r3, [r3]
    a220:	e2433004 	sub	r3, r3, #4
    a224:	e59f2ebc 	ldr	r2, [pc, #3772]	; b0e8 <main+0x3038>
    a228:	e5823000 	str	r3, [r2]
    a22c:	e59d2450 	ldr	r2, [sp, #1104]	; 0x450
    a230:	e59d344c 	ldr	r3, [sp, #1100]	; 0x44c
    a234:	e0823003 	add	r3, r2, r3
    a238:	e58d3448 	str	r3, [sp, #1096]	; 0x448
    a23c:	e59f3e9c 	ldr	r3, [pc, #3740]	; b0e0 <main+0x3030>
    a240:	e5933000 	ldr	r3, [r3]
    a244:	e59f1e90 	ldr	r1, [pc, #3728]	; b0dc <main+0x302c>
    a248:	e59d2450 	ldr	r2, [sp, #1104]	; 0x450
    a24c:	e7812103 	str	r2, [r1, r3, lsl #2]
    a250:	e59f3e88 	ldr	r3, [pc, #3720]	; b0e0 <main+0x3030>
    a254:	e5933000 	ldr	r3, [r3]
    a258:	e2833001 	add	r3, r3, #1
    a25c:	e59f1e78 	ldr	r1, [pc, #3704]	; b0dc <main+0x302c>
    a260:	e59d244c 	ldr	r2, [sp, #1100]	; 0x44c
    a264:	e7812103 	str	r2, [r1, r3, lsl #2]
    a268:	e59f3e70 	ldr	r3, [pc, #3696]	; b0e0 <main+0x3030>
    a26c:	e5933000 	ldr	r3, [r3]
    a270:	e2833002 	add	r3, r3, #2
    a274:	e59f1e60 	ldr	r1, [pc, #3680]	; b0dc <main+0x302c>
    a278:	e59d2448 	ldr	r2, [sp, #1096]	; 0x448
    a27c:	e7812103 	str	r2, [r1, r3, lsl #2]
    a280:	e59f3e58 	ldr	r3, [pc, #3672]	; b0e0 <main+0x3030>
    a284:	e5933000 	ldr	r3, [r3]
    a288:	e2833003 	add	r3, r3, #3
    a28c:	e59f2e4c 	ldr	r2, [pc, #3660]	; b0e0 <main+0x3030>
    a290:	e5823000 	str	r3, [r2]
    a294:	e59f3e4c 	ldr	r3, [pc, #3660]	; b0e8 <main+0x3038>
    a298:	e5933000 	ldr	r3, [r3]
    a29c:	e3530004 	cmp	r3, #4
    a2a0:	da00003d 	ble	a39c <main+0x22ec>
    a2a4:	e59f3e34 	ldr	r3, [pc, #3636]	; b0e0 <main+0x3030>
    a2a8:	e5933000 	ldr	r3, [r3]
    a2ac:	e2833003 	add	r3, r3, #3
    a2b0:	e3530006 	cmp	r3, #6
    a2b4:	ca000038 	bgt	a39c <main+0x22ec>
    a2b8:	e59f3e18 	ldr	r3, [pc, #3608]	; b0d8 <main+0x3028>
    a2bc:	e5932008 	ldr	r2, [r3, #8]
    a2c0:	e59f3e10 	ldr	r3, [pc, #3600]	; b0d8 <main+0x3028>
    a2c4:	e593300c 	ldr	r3, [r3, #12]
    a2c8:	e1520003 	cmp	r2, r3
    a2cc:	1a000032 	bne	a39c <main+0x22ec>
    a2d0:	e59f3e00 	ldr	r3, [pc, #3584]	; b0d8 <main+0x3028>
    a2d4:	e5932008 	ldr	r2, [r3, #8]
    a2d8:	e59f3df8 	ldr	r3, [pc, #3576]	; b0d8 <main+0x3028>
    a2dc:	e5933010 	ldr	r3, [r3, #16]
    a2e0:	e1520003 	cmp	r2, r3
    a2e4:	1a00002c 	bne	a39c <main+0x22ec>
    a2e8:	e59f3de8 	ldr	r3, [pc, #3560]	; b0d8 <main+0x3028>
    a2ec:	e5933000 	ldr	r3, [r3]
    a2f0:	e58d3444 	str	r3, [sp, #1092]	; 0x444
    a2f4:	e59f3ddc 	ldr	r3, [pc, #3548]	; b0d8 <main+0x3028>
    a2f8:	e5933008 	ldr	r3, [r3, #8]
    a2fc:	e58d3440 	str	r3, [sp, #1088]	; 0x440
    a300:	e59d2440 	ldr	r2, [sp, #1088]	; 0x440
    a304:	e59d3444 	ldr	r3, [sp, #1092]	; 0x444
    a308:	e1520003 	cmp	r2, r3
    a30c:	da000022 	ble	a39c <main+0x22ec>
    a310:	e59f3dc0 	ldr	r3, [pc, #3520]	; b0d8 <main+0x3028>
    a314:	e5933004 	ldr	r3, [r3, #4]
    a318:	e59f2db8 	ldr	r2, [pc, #3512]	; b0d8 <main+0x3028>
    a31c:	e5823000 	str	r3, [r2]
    a320:	e59f3dc0 	ldr	r3, [pc, #3520]	; b0e8 <main+0x3038>
    a324:	e5933000 	ldr	r3, [r3]
    a328:	e2433004 	sub	r3, r3, #4
    a32c:	e59f2db4 	ldr	r2, [pc, #3508]	; b0e8 <main+0x3038>
    a330:	e5823000 	str	r3, [r2]
    a334:	e59d2444 	ldr	r2, [sp, #1092]	; 0x444
    a338:	e59d3440 	ldr	r3, [sp, #1088]	; 0x440
    a33c:	e0823003 	add	r3, r2, r3
    a340:	e58d343c 	str	r3, [sp, #1084]	; 0x43c
    a344:	e59f3d94 	ldr	r3, [pc, #3476]	; b0e0 <main+0x3030>
    a348:	e5933000 	ldr	r3, [r3]
    a34c:	e59f1d88 	ldr	r1, [pc, #3464]	; b0dc <main+0x302c>
    a350:	e59d2444 	ldr	r2, [sp, #1092]	; 0x444
    a354:	e7812103 	str	r2, [r1, r3, lsl #2]
    a358:	e59f3d80 	ldr	r3, [pc, #3456]	; b0e0 <main+0x3030>
    a35c:	e5933000 	ldr	r3, [r3]
    a360:	e2833001 	add	r3, r3, #1
    a364:	e59f1d70 	ldr	r1, [pc, #3440]	; b0dc <main+0x302c>
    a368:	e59d2440 	ldr	r2, [sp, #1088]	; 0x440
    a36c:	e7812103 	str	r2, [r1, r3, lsl #2]
    a370:	e59f3d68 	ldr	r3, [pc, #3432]	; b0e0 <main+0x3030>
    a374:	e5933000 	ldr	r3, [r3]
    a378:	e2833002 	add	r3, r3, #2
    a37c:	e59f1d58 	ldr	r1, [pc, #3416]	; b0dc <main+0x302c>
    a380:	e59d243c 	ldr	r2, [sp, #1084]	; 0x43c
    a384:	e7812103 	str	r2, [r1, r3, lsl #2]
    a388:	e59f3d50 	ldr	r3, [pc, #3408]	; b0e0 <main+0x3030>
    a38c:	e5933000 	ldr	r3, [r3]
    a390:	e2833003 	add	r3, r3, #3
    a394:	e59f2d44 	ldr	r2, [pc, #3396]	; b0e0 <main+0x3030>
    a398:	e5823000 	str	r3, [r2]
    a39c:	e59f3d44 	ldr	r3, [pc, #3396]	; b0e8 <main+0x3038>
    a3a0:	e5933000 	ldr	r3, [r3]
    a3a4:	e3530004 	cmp	r3, #4
    a3a8:	da00003d 	ble	a4a4 <main+0x23f4>
    a3ac:	e59f3d2c 	ldr	r3, [pc, #3372]	; b0e0 <main+0x3030>
    a3b0:	e5933000 	ldr	r3, [r3]
    a3b4:	e2833003 	add	r3, r3, #3
    a3b8:	e3530006 	cmp	r3, #6
    a3bc:	ca000038 	bgt	a4a4 <main+0x23f4>
    a3c0:	e59f3d10 	ldr	r3, [pc, #3344]	; b0d8 <main+0x3028>
    a3c4:	e5932008 	ldr	r2, [r3, #8]
    a3c8:	e59f3d08 	ldr	r3, [pc, #3336]	; b0d8 <main+0x3028>
    a3cc:	e5933010 	ldr	r3, [r3, #16]
    a3d0:	e1520003 	cmp	r2, r3
    a3d4:	1a000032 	bne	a4a4 <main+0x23f4>
    a3d8:	e59f3cf8 	ldr	r3, [pc, #3320]	; b0d8 <main+0x3028>
    a3dc:	e5932008 	ldr	r2, [r3, #8]
    a3e0:	e59f3cf0 	ldr	r3, [pc, #3312]	; b0d8 <main+0x3028>
    a3e4:	e5933004 	ldr	r3, [r3, #4]
    a3e8:	e1520003 	cmp	r2, r3
    a3ec:	1a00002c 	bne	a4a4 <main+0x23f4>
    a3f0:	e59f3ce0 	ldr	r3, [pc, #3296]	; b0d8 <main+0x3028>
    a3f4:	e5933000 	ldr	r3, [r3]
    a3f8:	e58d3438 	str	r3, [sp, #1080]	; 0x438
    a3fc:	e59f3cd4 	ldr	r3, [pc, #3284]	; b0d8 <main+0x3028>
    a400:	e5933008 	ldr	r3, [r3, #8]
    a404:	e58d3434 	str	r3, [sp, #1076]	; 0x434
    a408:	e59d2434 	ldr	r2, [sp, #1076]	; 0x434
    a40c:	e59d3438 	ldr	r3, [sp, #1080]	; 0x438
    a410:	e1520003 	cmp	r2, r3
    a414:	da000022 	ble	a4a4 <main+0x23f4>
    a418:	e59f3cb8 	ldr	r3, [pc, #3256]	; b0d8 <main+0x3028>
    a41c:	e593300c 	ldr	r3, [r3, #12]
    a420:	e59f2cb0 	ldr	r2, [pc, #3248]	; b0d8 <main+0x3028>
    a424:	e5823000 	str	r3, [r2]
    a428:	e59f3cb8 	ldr	r3, [pc, #3256]	; b0e8 <main+0x3038>
    a42c:	e5933000 	ldr	r3, [r3]
    a430:	e2433004 	sub	r3, r3, #4
    a434:	e59f2cac 	ldr	r2, [pc, #3244]	; b0e8 <main+0x3038>
    a438:	e5823000 	str	r3, [r2]
    a43c:	e59d2438 	ldr	r2, [sp, #1080]	; 0x438
    a440:	e59d3434 	ldr	r3, [sp, #1076]	; 0x434
    a444:	e0823003 	add	r3, r2, r3
    a448:	e58d3430 	str	r3, [sp, #1072]	; 0x430
    a44c:	e59f3c8c 	ldr	r3, [pc, #3212]	; b0e0 <main+0x3030>
    a450:	e5933000 	ldr	r3, [r3]
    a454:	e59f1c80 	ldr	r1, [pc, #3200]	; b0dc <main+0x302c>
    a458:	e59d2438 	ldr	r2, [sp, #1080]	; 0x438
    a45c:	e7812103 	str	r2, [r1, r3, lsl #2]
    a460:	e59f3c78 	ldr	r3, [pc, #3192]	; b0e0 <main+0x3030>
    a464:	e5933000 	ldr	r3, [r3]
    a468:	e2833001 	add	r3, r3, #1
    a46c:	e59f1c68 	ldr	r1, [pc, #3176]	; b0dc <main+0x302c>
    a470:	e59d2434 	ldr	r2, [sp, #1076]	; 0x434
    a474:	e7812103 	str	r2, [r1, r3, lsl #2]
    a478:	e59f3c60 	ldr	r3, [pc, #3168]	; b0e0 <main+0x3030>
    a47c:	e5933000 	ldr	r3, [r3]
    a480:	e2833002 	add	r3, r3, #2
    a484:	e59f1c50 	ldr	r1, [pc, #3152]	; b0dc <main+0x302c>
    a488:	e59d2430 	ldr	r2, [sp, #1072]	; 0x430
    a48c:	e7812103 	str	r2, [r1, r3, lsl #2]
    a490:	e59f3c48 	ldr	r3, [pc, #3144]	; b0e0 <main+0x3030>
    a494:	e5933000 	ldr	r3, [r3]
    a498:	e2833003 	add	r3, r3, #3
    a49c:	e59f2c3c 	ldr	r2, [pc, #3132]	; b0e0 <main+0x3030>
    a4a0:	e5823000 	str	r3, [r2]
    a4a4:	e59f3c3c 	ldr	r3, [pc, #3132]	; b0e8 <main+0x3038>
    a4a8:	e5933000 	ldr	r3, [r3]
    a4ac:	e3530004 	cmp	r3, #4
    a4b0:	da00003d 	ble	a5ac <main+0x24fc>
    a4b4:	e59f3c24 	ldr	r3, [pc, #3108]	; b0e0 <main+0x3030>
    a4b8:	e5933000 	ldr	r3, [r3]
    a4bc:	e2833003 	add	r3, r3, #3
    a4c0:	e3530006 	cmp	r3, #6
    a4c4:	ca000038 	bgt	a5ac <main+0x24fc>
    a4c8:	e59f3c08 	ldr	r3, [pc, #3080]	; b0d8 <main+0x3028>
    a4cc:	e5932008 	ldr	r2, [r3, #8]
    a4d0:	e59f3c00 	ldr	r3, [pc, #3072]	; b0d8 <main+0x3028>
    a4d4:	e5933010 	ldr	r3, [r3, #16]
    a4d8:	e1520003 	cmp	r2, r3
    a4dc:	1a000032 	bne	a5ac <main+0x24fc>
    a4e0:	e59f3bf0 	ldr	r3, [pc, #3056]	; b0d8 <main+0x3028>
    a4e4:	e5932008 	ldr	r2, [r3, #8]
    a4e8:	e59f3be8 	ldr	r3, [pc, #3048]	; b0d8 <main+0x3028>
    a4ec:	e593300c 	ldr	r3, [r3, #12]
    a4f0:	e1520003 	cmp	r2, r3
    a4f4:	1a00002c 	bne	a5ac <main+0x24fc>
    a4f8:	e59f3bd8 	ldr	r3, [pc, #3032]	; b0d8 <main+0x3028>
    a4fc:	e5933000 	ldr	r3, [r3]
    a500:	e58d342c 	str	r3, [sp, #1068]	; 0x42c
    a504:	e59f3bcc 	ldr	r3, [pc, #3020]	; b0d8 <main+0x3028>
    a508:	e5933008 	ldr	r3, [r3, #8]
    a50c:	e58d3428 	str	r3, [sp, #1064]	; 0x428
    a510:	e59d2428 	ldr	r2, [sp, #1064]	; 0x428
    a514:	e59d342c 	ldr	r3, [sp, #1068]	; 0x42c
    a518:	e1520003 	cmp	r2, r3
    a51c:	da000022 	ble	a5ac <main+0x24fc>
    a520:	e59f3bb0 	ldr	r3, [pc, #2992]	; b0d8 <main+0x3028>
    a524:	e5933004 	ldr	r3, [r3, #4]
    a528:	e59f2ba8 	ldr	r2, [pc, #2984]	; b0d8 <main+0x3028>
    a52c:	e5823000 	str	r3, [r2]
    a530:	e59f3bb0 	ldr	r3, [pc, #2992]	; b0e8 <main+0x3038>
    a534:	e5933000 	ldr	r3, [r3]
    a538:	e2433004 	sub	r3, r3, #4
    a53c:	e59f2ba4 	ldr	r2, [pc, #2980]	; b0e8 <main+0x3038>
    a540:	e5823000 	str	r3, [r2]
    a544:	e59d242c 	ldr	r2, [sp, #1068]	; 0x42c
    a548:	e59d3428 	ldr	r3, [sp, #1064]	; 0x428
    a54c:	e0823003 	add	r3, r2, r3
    a550:	e58d3424 	str	r3, [sp, #1060]	; 0x424
    a554:	e59f3b84 	ldr	r3, [pc, #2948]	; b0e0 <main+0x3030>
    a558:	e5933000 	ldr	r3, [r3]
    a55c:	e59f1b78 	ldr	r1, [pc, #2936]	; b0dc <main+0x302c>
    a560:	e59d242c 	ldr	r2, [sp, #1068]	; 0x42c
    a564:	e7812103 	str	r2, [r1, r3, lsl #2]
    a568:	e59f3b70 	ldr	r3, [pc, #2928]	; b0e0 <main+0x3030>
    a56c:	e5933000 	ldr	r3, [r3]
    a570:	e2833001 	add	r3, r3, #1
    a574:	e59f1b60 	ldr	r1, [pc, #2912]	; b0dc <main+0x302c>
    a578:	e59d2428 	ldr	r2, [sp, #1064]	; 0x428
    a57c:	e7812103 	str	r2, [r1, r3, lsl #2]
    a580:	e59f3b58 	ldr	r3, [pc, #2904]	; b0e0 <main+0x3030>
    a584:	e5933000 	ldr	r3, [r3]
    a588:	e2833002 	add	r3, r3, #2
    a58c:	e59f1b48 	ldr	r1, [pc, #2888]	; b0dc <main+0x302c>
    a590:	e59d2424 	ldr	r2, [sp, #1060]	; 0x424
    a594:	e7812103 	str	r2, [r1, r3, lsl #2]
    a598:	e59f3b40 	ldr	r3, [pc, #2880]	; b0e0 <main+0x3030>
    a59c:	e5933000 	ldr	r3, [r3]
    a5a0:	e2833003 	add	r3, r3, #3
    a5a4:	e59f2b34 	ldr	r2, [pc, #2868]	; b0e0 <main+0x3030>
    a5a8:	e5823000 	str	r3, [r2]
    a5ac:	e59f3b34 	ldr	r3, [pc, #2868]	; b0e8 <main+0x3038>
    a5b0:	e5933000 	ldr	r3, [r3]
    a5b4:	e3530004 	cmp	r3, #4
    a5b8:	da00003d 	ble	a6b4 <main+0x2604>
    a5bc:	e59f3b1c 	ldr	r3, [pc, #2844]	; b0e0 <main+0x3030>
    a5c0:	e5933000 	ldr	r3, [r3]
    a5c4:	e2833003 	add	r3, r3, #3
    a5c8:	e3530006 	cmp	r3, #6
    a5cc:	ca000038 	bgt	a6b4 <main+0x2604>
    a5d0:	e59f3b00 	ldr	r3, [pc, #2816]	; b0d8 <main+0x3028>
    a5d4:	e593200c 	ldr	r2, [r3, #12]
    a5d8:	e59f3af8 	ldr	r3, [pc, #2808]	; b0d8 <main+0x3028>
    a5dc:	e5933004 	ldr	r3, [r3, #4]
    a5e0:	e1520003 	cmp	r2, r3
    a5e4:	1a000032 	bne	a6b4 <main+0x2604>
    a5e8:	e59f3ae8 	ldr	r3, [pc, #2792]	; b0d8 <main+0x3028>
    a5ec:	e593200c 	ldr	r2, [r3, #12]
    a5f0:	e59f3ae0 	ldr	r3, [pc, #2784]	; b0d8 <main+0x3028>
    a5f4:	e5933010 	ldr	r3, [r3, #16]
    a5f8:	e1520003 	cmp	r2, r3
    a5fc:	1a00002c 	bne	a6b4 <main+0x2604>
    a600:	e59f3ad0 	ldr	r3, [pc, #2768]	; b0d8 <main+0x3028>
    a604:	e5933000 	ldr	r3, [r3]
    a608:	e58d3420 	str	r3, [sp, #1056]	; 0x420
    a60c:	e59f3ac4 	ldr	r3, [pc, #2756]	; b0d8 <main+0x3028>
    a610:	e593300c 	ldr	r3, [r3, #12]
    a614:	e58d341c 	str	r3, [sp, #1052]	; 0x41c
    a618:	e59d241c 	ldr	r2, [sp, #1052]	; 0x41c
    a61c:	e59d3420 	ldr	r3, [sp, #1056]	; 0x420
    a620:	e1520003 	cmp	r2, r3
    a624:	da000022 	ble	a6b4 <main+0x2604>
    a628:	e59f3aa8 	ldr	r3, [pc, #2728]	; b0d8 <main+0x3028>
    a62c:	e5933008 	ldr	r3, [r3, #8]
    a630:	e59f2aa0 	ldr	r2, [pc, #2720]	; b0d8 <main+0x3028>
    a634:	e5823000 	str	r3, [r2]
    a638:	e59f3aa8 	ldr	r3, [pc, #2728]	; b0e8 <main+0x3038>
    a63c:	e5933000 	ldr	r3, [r3]
    a640:	e2433004 	sub	r3, r3, #4
    a644:	e59f2a9c 	ldr	r2, [pc, #2716]	; b0e8 <main+0x3038>
    a648:	e5823000 	str	r3, [r2]
    a64c:	e59d2420 	ldr	r2, [sp, #1056]	; 0x420
    a650:	e59d341c 	ldr	r3, [sp, #1052]	; 0x41c
    a654:	e0823003 	add	r3, r2, r3
    a658:	e58d3418 	str	r3, [sp, #1048]	; 0x418
    a65c:	e59f3a7c 	ldr	r3, [pc, #2684]	; b0e0 <main+0x3030>
    a660:	e5933000 	ldr	r3, [r3]
    a664:	e59f1a70 	ldr	r1, [pc, #2672]	; b0dc <main+0x302c>
    a668:	e59d2420 	ldr	r2, [sp, #1056]	; 0x420
    a66c:	e7812103 	str	r2, [r1, r3, lsl #2]
    a670:	e59f3a68 	ldr	r3, [pc, #2664]	; b0e0 <main+0x3030>
    a674:	e5933000 	ldr	r3, [r3]
    a678:	e2833001 	add	r3, r3, #1
    a67c:	e59f1a58 	ldr	r1, [pc, #2648]	; b0dc <main+0x302c>
    a680:	e59d241c 	ldr	r2, [sp, #1052]	; 0x41c
    a684:	e7812103 	str	r2, [r1, r3, lsl #2]
    a688:	e59f3a50 	ldr	r3, [pc, #2640]	; b0e0 <main+0x3030>
    a68c:	e5933000 	ldr	r3, [r3]
    a690:	e2833002 	add	r3, r3, #2
    a694:	e59f1a40 	ldr	r1, [pc, #2624]	; b0dc <main+0x302c>
    a698:	e59d2418 	ldr	r2, [sp, #1048]	; 0x418
    a69c:	e7812103 	str	r2, [r1, r3, lsl #2]
    a6a0:	e59f3a38 	ldr	r3, [pc, #2616]	; b0e0 <main+0x3030>
    a6a4:	e5933000 	ldr	r3, [r3]
    a6a8:	e2833003 	add	r3, r3, #3
    a6ac:	e59f2a2c 	ldr	r2, [pc, #2604]	; b0e0 <main+0x3030>
    a6b0:	e5823000 	str	r3, [r2]
    a6b4:	e59f3a2c 	ldr	r3, [pc, #2604]	; b0e8 <main+0x3038>
    a6b8:	e5933000 	ldr	r3, [r3]
    a6bc:	e3530004 	cmp	r3, #4
    a6c0:	da00003d 	ble	a7bc <main+0x270c>
    a6c4:	e59f3a14 	ldr	r3, [pc, #2580]	; b0e0 <main+0x3030>
    a6c8:	e5933000 	ldr	r3, [r3]
    a6cc:	e2833003 	add	r3, r3, #3
    a6d0:	e3530006 	cmp	r3, #6
    a6d4:	ca000038 	bgt	a7bc <main+0x270c>
    a6d8:	e59f39f8 	ldr	r3, [pc, #2552]	; b0d8 <main+0x3028>
    a6dc:	e593200c 	ldr	r2, [r3, #12]
    a6e0:	e59f39f0 	ldr	r3, [pc, #2544]	; b0d8 <main+0x3028>
    a6e4:	e5933008 	ldr	r3, [r3, #8]
    a6e8:	e1520003 	cmp	r2, r3
    a6ec:	1a000032 	bne	a7bc <main+0x270c>
    a6f0:	e59f39e0 	ldr	r3, [pc, #2528]	; b0d8 <main+0x3028>
    a6f4:	e593200c 	ldr	r2, [r3, #12]
    a6f8:	e59f39d8 	ldr	r3, [pc, #2520]	; b0d8 <main+0x3028>
    a6fc:	e5933010 	ldr	r3, [r3, #16]
    a700:	e1520003 	cmp	r2, r3
    a704:	1a00002c 	bne	a7bc <main+0x270c>
    a708:	e59f39c8 	ldr	r3, [pc, #2504]	; b0d8 <main+0x3028>
    a70c:	e5933000 	ldr	r3, [r3]
    a710:	e58d3414 	str	r3, [sp, #1044]	; 0x414
    a714:	e59f39bc 	ldr	r3, [pc, #2492]	; b0d8 <main+0x3028>
    a718:	e593300c 	ldr	r3, [r3, #12]
    a71c:	e58d3410 	str	r3, [sp, #1040]	; 0x410
    a720:	e59d2410 	ldr	r2, [sp, #1040]	; 0x410
    a724:	e59d3414 	ldr	r3, [sp, #1044]	; 0x414
    a728:	e1520003 	cmp	r2, r3
    a72c:	da000022 	ble	a7bc <main+0x270c>
    a730:	e59f39a0 	ldr	r3, [pc, #2464]	; b0d8 <main+0x3028>
    a734:	e5933004 	ldr	r3, [r3, #4]
    a738:	e59f2998 	ldr	r2, [pc, #2456]	; b0d8 <main+0x3028>
    a73c:	e5823000 	str	r3, [r2]
    a740:	e59f39a0 	ldr	r3, [pc, #2464]	; b0e8 <main+0x3038>
    a744:	e5933000 	ldr	r3, [r3]
    a748:	e2433004 	sub	r3, r3, #4
    a74c:	e59f2994 	ldr	r2, [pc, #2452]	; b0e8 <main+0x3038>
    a750:	e5823000 	str	r3, [r2]
    a754:	e59d2414 	ldr	r2, [sp, #1044]	; 0x414
    a758:	e59d3410 	ldr	r3, [sp, #1040]	; 0x410
    a75c:	e0823003 	add	r3, r2, r3
    a760:	e58d340c 	str	r3, [sp, #1036]	; 0x40c
    a764:	e59f3974 	ldr	r3, [pc, #2420]	; b0e0 <main+0x3030>
    a768:	e5933000 	ldr	r3, [r3]
    a76c:	e59f1968 	ldr	r1, [pc, #2408]	; b0dc <main+0x302c>
    a770:	e59d2414 	ldr	r2, [sp, #1044]	; 0x414
    a774:	e7812103 	str	r2, [r1, r3, lsl #2]
    a778:	e59f3960 	ldr	r3, [pc, #2400]	; b0e0 <main+0x3030>
    a77c:	e5933000 	ldr	r3, [r3]
    a780:	e2833001 	add	r3, r3, #1
    a784:	e59f1950 	ldr	r1, [pc, #2384]	; b0dc <main+0x302c>
    a788:	e59d2410 	ldr	r2, [sp, #1040]	; 0x410
    a78c:	e7812103 	str	r2, [r1, r3, lsl #2]
    a790:	e59f3948 	ldr	r3, [pc, #2376]	; b0e0 <main+0x3030>
    a794:	e5933000 	ldr	r3, [r3]
    a798:	e2833002 	add	r3, r3, #2
    a79c:	e59f1938 	ldr	r1, [pc, #2360]	; b0dc <main+0x302c>
    a7a0:	e59d240c 	ldr	r2, [sp, #1036]	; 0x40c
    a7a4:	e7812103 	str	r2, [r1, r3, lsl #2]
    a7a8:	e59f3930 	ldr	r3, [pc, #2352]	; b0e0 <main+0x3030>
    a7ac:	e5933000 	ldr	r3, [r3]
    a7b0:	e2833003 	add	r3, r3, #3
    a7b4:	e59f2924 	ldr	r2, [pc, #2340]	; b0e0 <main+0x3030>
    a7b8:	e5823000 	str	r3, [r2]
    a7bc:	e59f3924 	ldr	r3, [pc, #2340]	; b0e8 <main+0x3038>
    a7c0:	e5933000 	ldr	r3, [r3]
    a7c4:	e3530004 	cmp	r3, #4
    a7c8:	da00003d 	ble	a8c4 <main+0x2814>
    a7cc:	e59f390c 	ldr	r3, [pc, #2316]	; b0e0 <main+0x3030>
    a7d0:	e5933000 	ldr	r3, [r3]
    a7d4:	e2833003 	add	r3, r3, #3
    a7d8:	e3530006 	cmp	r3, #6
    a7dc:	ca000038 	bgt	a8c4 <main+0x2814>
    a7e0:	e59f38f0 	ldr	r3, [pc, #2288]	; b0d8 <main+0x3028>
    a7e4:	e593200c 	ldr	r2, [r3, #12]
    a7e8:	e59f38e8 	ldr	r3, [pc, #2280]	; b0d8 <main+0x3028>
    a7ec:	e5933010 	ldr	r3, [r3, #16]
    a7f0:	e1520003 	cmp	r2, r3
    a7f4:	1a000032 	bne	a8c4 <main+0x2814>
    a7f8:	e59f38d8 	ldr	r3, [pc, #2264]	; b0d8 <main+0x3028>
    a7fc:	e593200c 	ldr	r2, [r3, #12]
    a800:	e59f38d0 	ldr	r3, [pc, #2256]	; b0d8 <main+0x3028>
    a804:	e5933004 	ldr	r3, [r3, #4]
    a808:	e1520003 	cmp	r2, r3
    a80c:	1a00002c 	bne	a8c4 <main+0x2814>
    a810:	e59f38c0 	ldr	r3, [pc, #2240]	; b0d8 <main+0x3028>
    a814:	e5933000 	ldr	r3, [r3]
    a818:	e58d3408 	str	r3, [sp, #1032]	; 0x408
    a81c:	e59f38b4 	ldr	r3, [pc, #2228]	; b0d8 <main+0x3028>
    a820:	e593300c 	ldr	r3, [r3, #12]
    a824:	e58d3404 	str	r3, [sp, #1028]	; 0x404
    a828:	e59d2404 	ldr	r2, [sp, #1028]	; 0x404
    a82c:	e59d3408 	ldr	r3, [sp, #1032]	; 0x408
    a830:	e1520003 	cmp	r2, r3
    a834:	da000022 	ble	a8c4 <main+0x2814>
    a838:	e59f3898 	ldr	r3, [pc, #2200]	; b0d8 <main+0x3028>
    a83c:	e5933008 	ldr	r3, [r3, #8]
    a840:	e59f2890 	ldr	r2, [pc, #2192]	; b0d8 <main+0x3028>
    a844:	e5823000 	str	r3, [r2]
    a848:	e59f3898 	ldr	r3, [pc, #2200]	; b0e8 <main+0x3038>
    a84c:	e5933000 	ldr	r3, [r3]
    a850:	e2433004 	sub	r3, r3, #4
    a854:	e59f288c 	ldr	r2, [pc, #2188]	; b0e8 <main+0x3038>
    a858:	e5823000 	str	r3, [r2]
    a85c:	e59d2408 	ldr	r2, [sp, #1032]	; 0x408
    a860:	e59d3404 	ldr	r3, [sp, #1028]	; 0x404
    a864:	e0823003 	add	r3, r2, r3
    a868:	e58d3400 	str	r3, [sp, #1024]	; 0x400
    a86c:	e59f386c 	ldr	r3, [pc, #2156]	; b0e0 <main+0x3030>
    a870:	e5933000 	ldr	r3, [r3]
    a874:	e59f1860 	ldr	r1, [pc, #2144]	; b0dc <main+0x302c>
    a878:	e59d2408 	ldr	r2, [sp, #1032]	; 0x408
    a87c:	e7812103 	str	r2, [r1, r3, lsl #2]
    a880:	e59f3858 	ldr	r3, [pc, #2136]	; b0e0 <main+0x3030>
    a884:	e5933000 	ldr	r3, [r3]
    a888:	e2833001 	add	r3, r3, #1
    a88c:	e59f1848 	ldr	r1, [pc, #2120]	; b0dc <main+0x302c>
    a890:	e59d2404 	ldr	r2, [sp, #1028]	; 0x404
    a894:	e7812103 	str	r2, [r1, r3, lsl #2]
    a898:	e59f3840 	ldr	r3, [pc, #2112]	; b0e0 <main+0x3030>
    a89c:	e5933000 	ldr	r3, [r3]
    a8a0:	e2833002 	add	r3, r3, #2
    a8a4:	e59f1830 	ldr	r1, [pc, #2096]	; b0dc <main+0x302c>
    a8a8:	e59d2400 	ldr	r2, [sp, #1024]	; 0x400
    a8ac:	e7812103 	str	r2, [r1, r3, lsl #2]
    a8b0:	e59f3828 	ldr	r3, [pc, #2088]	; b0e0 <main+0x3030>
    a8b4:	e5933000 	ldr	r3, [r3]
    a8b8:	e2833003 	add	r3, r3, #3
    a8bc:	e59f281c 	ldr	r2, [pc, #2076]	; b0e0 <main+0x3030>
    a8c0:	e5823000 	str	r3, [r2]
    a8c4:	e59f381c 	ldr	r3, [pc, #2076]	; b0e8 <main+0x3038>
    a8c8:	e5933000 	ldr	r3, [r3]
    a8cc:	e3530004 	cmp	r3, #4
    a8d0:	da00003d 	ble	a9cc <main+0x291c>
    a8d4:	e59f3804 	ldr	r3, [pc, #2052]	; b0e0 <main+0x3030>
    a8d8:	e5933000 	ldr	r3, [r3]
    a8dc:	e2833003 	add	r3, r3, #3
    a8e0:	e3530006 	cmp	r3, #6
    a8e4:	ca000038 	bgt	a9cc <main+0x291c>
    a8e8:	e59f37e8 	ldr	r3, [pc, #2024]	; b0d8 <main+0x3028>
    a8ec:	e593200c 	ldr	r2, [r3, #12]
    a8f0:	e59f37e0 	ldr	r3, [pc, #2016]	; b0d8 <main+0x3028>
    a8f4:	e5933010 	ldr	r3, [r3, #16]
    a8f8:	e1520003 	cmp	r2, r3
    a8fc:	1a000032 	bne	a9cc <main+0x291c>
    a900:	e59f37d0 	ldr	r3, [pc, #2000]	; b0d8 <main+0x3028>
    a904:	e593200c 	ldr	r2, [r3, #12]
    a908:	e59f37c8 	ldr	r3, [pc, #1992]	; b0d8 <main+0x3028>
    a90c:	e5933008 	ldr	r3, [r3, #8]
    a910:	e1520003 	cmp	r2, r3
    a914:	1a00002c 	bne	a9cc <main+0x291c>
    a918:	e59f37b8 	ldr	r3, [pc, #1976]	; b0d8 <main+0x3028>
    a91c:	e5933000 	ldr	r3, [r3]
    a920:	e58d33fc 	str	r3, [sp, #1020]	; 0x3fc
    a924:	e59f37ac 	ldr	r3, [pc, #1964]	; b0d8 <main+0x3028>
    a928:	e593300c 	ldr	r3, [r3, #12]
    a92c:	e58d33f8 	str	r3, [sp, #1016]	; 0x3f8
    a930:	e59d23f8 	ldr	r2, [sp, #1016]	; 0x3f8
    a934:	e59d33fc 	ldr	r3, [sp, #1020]	; 0x3fc
    a938:	e1520003 	cmp	r2, r3
    a93c:	da000022 	ble	a9cc <main+0x291c>
    a940:	e59f3790 	ldr	r3, [pc, #1936]	; b0d8 <main+0x3028>
    a944:	e5933004 	ldr	r3, [r3, #4]
    a948:	e59f2788 	ldr	r2, [pc, #1928]	; b0d8 <main+0x3028>
    a94c:	e5823000 	str	r3, [r2]
    a950:	e59f3790 	ldr	r3, [pc, #1936]	; b0e8 <main+0x3038>
    a954:	e5933000 	ldr	r3, [r3]
    a958:	e2433004 	sub	r3, r3, #4
    a95c:	e59f2784 	ldr	r2, [pc, #1924]	; b0e8 <main+0x3038>
    a960:	e5823000 	str	r3, [r2]
    a964:	e59d23fc 	ldr	r2, [sp, #1020]	; 0x3fc
    a968:	e59d33f8 	ldr	r3, [sp, #1016]	; 0x3f8
    a96c:	e0823003 	add	r3, r2, r3
    a970:	e58d33f4 	str	r3, [sp, #1012]	; 0x3f4
    a974:	e59f3764 	ldr	r3, [pc, #1892]	; b0e0 <main+0x3030>
    a978:	e5933000 	ldr	r3, [r3]
    a97c:	e59f1758 	ldr	r1, [pc, #1880]	; b0dc <main+0x302c>
    a980:	e59d23fc 	ldr	r2, [sp, #1020]	; 0x3fc
    a984:	e7812103 	str	r2, [r1, r3, lsl #2]
    a988:	e59f3750 	ldr	r3, [pc, #1872]	; b0e0 <main+0x3030>
    a98c:	e5933000 	ldr	r3, [r3]
    a990:	e2833001 	add	r3, r3, #1
    a994:	e59f1740 	ldr	r1, [pc, #1856]	; b0dc <main+0x302c>
    a998:	e59d23f8 	ldr	r2, [sp, #1016]	; 0x3f8
    a99c:	e7812103 	str	r2, [r1, r3, lsl #2]
    a9a0:	e59f3738 	ldr	r3, [pc, #1848]	; b0e0 <main+0x3030>
    a9a4:	e5933000 	ldr	r3, [r3]
    a9a8:	e2833002 	add	r3, r3, #2
    a9ac:	e59f1728 	ldr	r1, [pc, #1832]	; b0dc <main+0x302c>
    a9b0:	e59d23f4 	ldr	r2, [sp, #1012]	; 0x3f4
    a9b4:	e7812103 	str	r2, [r1, r3, lsl #2]
    a9b8:	e59f3720 	ldr	r3, [pc, #1824]	; b0e0 <main+0x3030>
    a9bc:	e5933000 	ldr	r3, [r3]
    a9c0:	e2833003 	add	r3, r3, #3
    a9c4:	e59f2714 	ldr	r2, [pc, #1812]	; b0e0 <main+0x3030>
    a9c8:	e5823000 	str	r3, [r2]
    a9cc:	e59f3714 	ldr	r3, [pc, #1812]	; b0e8 <main+0x3038>
    a9d0:	e5933000 	ldr	r3, [r3]
    a9d4:	e3530004 	cmp	r3, #4
    a9d8:	da00003d 	ble	aad4 <main+0x2a24>
    a9dc:	e59f36fc 	ldr	r3, [pc, #1788]	; b0e0 <main+0x3030>
    a9e0:	e5933000 	ldr	r3, [r3]
    a9e4:	e2833003 	add	r3, r3, #3
    a9e8:	e3530006 	cmp	r3, #6
    a9ec:	ca000038 	bgt	aad4 <main+0x2a24>
    a9f0:	e59f36e0 	ldr	r3, [pc, #1760]	; b0d8 <main+0x3028>
    a9f4:	e5932010 	ldr	r2, [r3, #16]
    a9f8:	e59f36d8 	ldr	r3, [pc, #1752]	; b0d8 <main+0x3028>
    a9fc:	e5933004 	ldr	r3, [r3, #4]
    aa00:	e1520003 	cmp	r2, r3
    aa04:	1a000032 	bne	aad4 <main+0x2a24>
    aa08:	e59f36c8 	ldr	r3, [pc, #1736]	; b0d8 <main+0x3028>
    aa0c:	e5932010 	ldr	r2, [r3, #16]
    aa10:	e59f36c0 	ldr	r3, [pc, #1728]	; b0d8 <main+0x3028>
    aa14:	e5933008 	ldr	r3, [r3, #8]
    aa18:	e1520003 	cmp	r2, r3
    aa1c:	1a00002c 	bne	aad4 <main+0x2a24>
    aa20:	e59f36b0 	ldr	r3, [pc, #1712]	; b0d8 <main+0x3028>
    aa24:	e5933000 	ldr	r3, [r3]
    aa28:	e58d33f0 	str	r3, [sp, #1008]	; 0x3f0
    aa2c:	e59f36a4 	ldr	r3, [pc, #1700]	; b0d8 <main+0x3028>
    aa30:	e5933010 	ldr	r3, [r3, #16]
    aa34:	e58d33ec 	str	r3, [sp, #1004]	; 0x3ec
    aa38:	e59d23ec 	ldr	r2, [sp, #1004]	; 0x3ec
    aa3c:	e59d33f0 	ldr	r3, [sp, #1008]	; 0x3f0
    aa40:	e1520003 	cmp	r2, r3
    aa44:	da000022 	ble	aad4 <main+0x2a24>
    aa48:	e59f3688 	ldr	r3, [pc, #1672]	; b0d8 <main+0x3028>
    aa4c:	e593300c 	ldr	r3, [r3, #12]
    aa50:	e59f2680 	ldr	r2, [pc, #1664]	; b0d8 <main+0x3028>
    aa54:	e5823000 	str	r3, [r2]
    aa58:	e59f3688 	ldr	r3, [pc, #1672]	; b0e8 <main+0x3038>
    aa5c:	e5933000 	ldr	r3, [r3]
    aa60:	e2433004 	sub	r3, r3, #4
    aa64:	e59f267c 	ldr	r2, [pc, #1660]	; b0e8 <main+0x3038>
    aa68:	e5823000 	str	r3, [r2]
    aa6c:	e59d23f0 	ldr	r2, [sp, #1008]	; 0x3f0
    aa70:	e59d33ec 	ldr	r3, [sp, #1004]	; 0x3ec
    aa74:	e0823003 	add	r3, r2, r3
    aa78:	e58d33e8 	str	r3, [sp, #1000]	; 0x3e8
    aa7c:	e59f365c 	ldr	r3, [pc, #1628]	; b0e0 <main+0x3030>
    aa80:	e5933000 	ldr	r3, [r3]
    aa84:	e59f1650 	ldr	r1, [pc, #1616]	; b0dc <main+0x302c>
    aa88:	e59d23f0 	ldr	r2, [sp, #1008]	; 0x3f0
    aa8c:	e7812103 	str	r2, [r1, r3, lsl #2]
    aa90:	e59f3648 	ldr	r3, [pc, #1608]	; b0e0 <main+0x3030>
    aa94:	e5933000 	ldr	r3, [r3]
    aa98:	e2833001 	add	r3, r3, #1
    aa9c:	e59f1638 	ldr	r1, [pc, #1592]	; b0dc <main+0x302c>
    aaa0:	e59d23ec 	ldr	r2, [sp, #1004]	; 0x3ec
    aaa4:	e7812103 	str	r2, [r1, r3, lsl #2]
    aaa8:	e59f3630 	ldr	r3, [pc, #1584]	; b0e0 <main+0x3030>
    aaac:	e5933000 	ldr	r3, [r3]
    aab0:	e2833002 	add	r3, r3, #2
    aab4:	e59f1620 	ldr	r1, [pc, #1568]	; b0dc <main+0x302c>
    aab8:	e59d23e8 	ldr	r2, [sp, #1000]	; 0x3e8
    aabc:	e7812103 	str	r2, [r1, r3, lsl #2]
    aac0:	e59f3618 	ldr	r3, [pc, #1560]	; b0e0 <main+0x3030>
    aac4:	e5933000 	ldr	r3, [r3]
    aac8:	e2833003 	add	r3, r3, #3
    aacc:	e59f260c 	ldr	r2, [pc, #1548]	; b0e0 <main+0x3030>
    aad0:	e5823000 	str	r3, [r2]
    aad4:	e59f360c 	ldr	r3, [pc, #1548]	; b0e8 <main+0x3038>
    aad8:	e5933000 	ldr	r3, [r3]
    aadc:	e3530004 	cmp	r3, #4
    aae0:	da00003d 	ble	abdc <main+0x2b2c>
    aae4:	e59f35f4 	ldr	r3, [pc, #1524]	; b0e0 <main+0x3030>
    aae8:	e5933000 	ldr	r3, [r3]
    aaec:	e2833003 	add	r3, r3, #3
    aaf0:	e3530006 	cmp	r3, #6
    aaf4:	ca000038 	bgt	abdc <main+0x2b2c>
    aaf8:	e59f35d8 	ldr	r3, [pc, #1496]	; b0d8 <main+0x3028>
    aafc:	e5932010 	ldr	r2, [r3, #16]
    ab00:	e59f35d0 	ldr	r3, [pc, #1488]	; b0d8 <main+0x3028>
    ab04:	e5933004 	ldr	r3, [r3, #4]
    ab08:	e1520003 	cmp	r2, r3
    ab0c:	1a000032 	bne	abdc <main+0x2b2c>
    ab10:	e59f35c0 	ldr	r3, [pc, #1472]	; b0d8 <main+0x3028>
    ab14:	e5932010 	ldr	r2, [r3, #16]
    ab18:	e59f35b8 	ldr	r3, [pc, #1464]	; b0d8 <main+0x3028>
    ab1c:	e593300c 	ldr	r3, [r3, #12]
    ab20:	e1520003 	cmp	r2, r3
    ab24:	1a00002c 	bne	abdc <main+0x2b2c>
    ab28:	e59f35a8 	ldr	r3, [pc, #1448]	; b0d8 <main+0x3028>
    ab2c:	e5933000 	ldr	r3, [r3]
    ab30:	e58d33e4 	str	r3, [sp, #996]	; 0x3e4
    ab34:	e59f359c 	ldr	r3, [pc, #1436]	; b0d8 <main+0x3028>
    ab38:	e5933010 	ldr	r3, [r3, #16]
    ab3c:	e58d33e0 	str	r3, [sp, #992]	; 0x3e0
    ab40:	e59d23e0 	ldr	r2, [sp, #992]	; 0x3e0
    ab44:	e59d33e4 	ldr	r3, [sp, #996]	; 0x3e4
    ab48:	e1520003 	cmp	r2, r3
    ab4c:	da000022 	ble	abdc <main+0x2b2c>
    ab50:	e59f3580 	ldr	r3, [pc, #1408]	; b0d8 <main+0x3028>
    ab54:	e5933008 	ldr	r3, [r3, #8]
    ab58:	e59f2578 	ldr	r2, [pc, #1400]	; b0d8 <main+0x3028>
    ab5c:	e5823000 	str	r3, [r2]
    ab60:	e59f3580 	ldr	r3, [pc, #1408]	; b0e8 <main+0x3038>
    ab64:	e5933000 	ldr	r3, [r3]
    ab68:	e2433004 	sub	r3, r3, #4
    ab6c:	e59f2574 	ldr	r2, [pc, #1396]	; b0e8 <main+0x3038>
    ab70:	e5823000 	str	r3, [r2]
    ab74:	e59d23e4 	ldr	r2, [sp, #996]	; 0x3e4
    ab78:	e59d33e0 	ldr	r3, [sp, #992]	; 0x3e0
    ab7c:	e0823003 	add	r3, r2, r3
    ab80:	e58d33dc 	str	r3, [sp, #988]	; 0x3dc
    ab84:	e59f3554 	ldr	r3, [pc, #1364]	; b0e0 <main+0x3030>
    ab88:	e5933000 	ldr	r3, [r3]
    ab8c:	e59f1548 	ldr	r1, [pc, #1352]	; b0dc <main+0x302c>
    ab90:	e59d23e4 	ldr	r2, [sp, #996]	; 0x3e4
    ab94:	e7812103 	str	r2, [r1, r3, lsl #2]
    ab98:	e59f3540 	ldr	r3, [pc, #1344]	; b0e0 <main+0x3030>
    ab9c:	e5933000 	ldr	r3, [r3]
    aba0:	e2833001 	add	r3, r3, #1
    aba4:	e59f1530 	ldr	r1, [pc, #1328]	; b0dc <main+0x302c>
    aba8:	e59d23e0 	ldr	r2, [sp, #992]	; 0x3e0
    abac:	e7812103 	str	r2, [r1, r3, lsl #2]
    abb0:	e59f3528 	ldr	r3, [pc, #1320]	; b0e0 <main+0x3030>
    abb4:	e5933000 	ldr	r3, [r3]
    abb8:	e2833002 	add	r3, r3, #2
    abbc:	e59f1518 	ldr	r1, [pc, #1304]	; b0dc <main+0x302c>
    abc0:	e59d23dc 	ldr	r2, [sp, #988]	; 0x3dc
    abc4:	e7812103 	str	r2, [r1, r3, lsl #2]
    abc8:	e59f3510 	ldr	r3, [pc, #1296]	; b0e0 <main+0x3030>
    abcc:	e5933000 	ldr	r3, [r3]
    abd0:	e2833003 	add	r3, r3, #3
    abd4:	e59f2504 	ldr	r2, [pc, #1284]	; b0e0 <main+0x3030>
    abd8:	e5823000 	str	r3, [r2]
    abdc:	e59f3504 	ldr	r3, [pc, #1284]	; b0e8 <main+0x3038>
    abe0:	e5933000 	ldr	r3, [r3]
    abe4:	e3530004 	cmp	r3, #4
    abe8:	da00003d 	ble	ace4 <main+0x2c34>
    abec:	e59f34ec 	ldr	r3, [pc, #1260]	; b0e0 <main+0x3030>
    abf0:	e5933000 	ldr	r3, [r3]
    abf4:	e2833003 	add	r3, r3, #3
    abf8:	e3530006 	cmp	r3, #6
    abfc:	ca000038 	bgt	ace4 <main+0x2c34>
    ac00:	e59f34d0 	ldr	r3, [pc, #1232]	; b0d8 <main+0x3028>
    ac04:	e5932010 	ldr	r2, [r3, #16]
    ac08:	e59f34c8 	ldr	r3, [pc, #1224]	; b0d8 <main+0x3028>
    ac0c:	e5933008 	ldr	r3, [r3, #8]
    ac10:	e1520003 	cmp	r2, r3
    ac14:	1a000032 	bne	ace4 <main+0x2c34>
    ac18:	e59f34b8 	ldr	r3, [pc, #1208]	; b0d8 <main+0x3028>
    ac1c:	e5932010 	ldr	r2, [r3, #16]
    ac20:	e59f34b0 	ldr	r3, [pc, #1200]	; b0d8 <main+0x3028>
    ac24:	e5933004 	ldr	r3, [r3, #4]
    ac28:	e1520003 	cmp	r2, r3
    ac2c:	1a00002c 	bne	ace4 <main+0x2c34>
    ac30:	e59f34a0 	ldr	r3, [pc, #1184]	; b0d8 <main+0x3028>
    ac34:	e5933000 	ldr	r3, [r3]
    ac38:	e58d33d8 	str	r3, [sp, #984]	; 0x3d8
    ac3c:	e59f3494 	ldr	r3, [pc, #1172]	; b0d8 <main+0x3028>
    ac40:	e5933010 	ldr	r3, [r3, #16]
    ac44:	e58d33d4 	str	r3, [sp, #980]	; 0x3d4
    ac48:	e59d23d4 	ldr	r2, [sp, #980]	; 0x3d4
    ac4c:	e59d33d8 	ldr	r3, [sp, #984]	; 0x3d8
    ac50:	e1520003 	cmp	r2, r3
    ac54:	da000022 	ble	ace4 <main+0x2c34>
    ac58:	e59f3478 	ldr	r3, [pc, #1144]	; b0d8 <main+0x3028>
    ac5c:	e593300c 	ldr	r3, [r3, #12]
    ac60:	e59f2470 	ldr	r2, [pc, #1136]	; b0d8 <main+0x3028>
    ac64:	e5823000 	str	r3, [r2]
    ac68:	e59f3478 	ldr	r3, [pc, #1144]	; b0e8 <main+0x3038>
    ac6c:	e5933000 	ldr	r3, [r3]
    ac70:	e2433004 	sub	r3, r3, #4
    ac74:	e59f246c 	ldr	r2, [pc, #1132]	; b0e8 <main+0x3038>
    ac78:	e5823000 	str	r3, [r2]
    ac7c:	e59d23d8 	ldr	r2, [sp, #984]	; 0x3d8
    ac80:	e59d33d4 	ldr	r3, [sp, #980]	; 0x3d4
    ac84:	e0823003 	add	r3, r2, r3
    ac88:	e58d33d0 	str	r3, [sp, #976]	; 0x3d0
    ac8c:	e59f344c 	ldr	r3, [pc, #1100]	; b0e0 <main+0x3030>
    ac90:	e5933000 	ldr	r3, [r3]
    ac94:	e59f1440 	ldr	r1, [pc, #1088]	; b0dc <main+0x302c>
    ac98:	e59d23d8 	ldr	r2, [sp, #984]	; 0x3d8
    ac9c:	e7812103 	str	r2, [r1, r3, lsl #2]
    aca0:	e59f3438 	ldr	r3, [pc, #1080]	; b0e0 <main+0x3030>
    aca4:	e5933000 	ldr	r3, [r3]
    aca8:	e2833001 	add	r3, r3, #1
    acac:	e59f1428 	ldr	r1, [pc, #1064]	; b0dc <main+0x302c>
    acb0:	e59d23d4 	ldr	r2, [sp, #980]	; 0x3d4
    acb4:	e7812103 	str	r2, [r1, r3, lsl #2]
    acb8:	e59f3420 	ldr	r3, [pc, #1056]	; b0e0 <main+0x3030>
    acbc:	e5933000 	ldr	r3, [r3]
    acc0:	e2833002 	add	r3, r3, #2
    acc4:	e59f1410 	ldr	r1, [pc, #1040]	; b0dc <main+0x302c>
    acc8:	e59d23d0 	ldr	r2, [sp, #976]	; 0x3d0
    accc:	e7812103 	str	r2, [r1, r3, lsl #2]
    acd0:	e59f3408 	ldr	r3, [pc, #1032]	; b0e0 <main+0x3030>
    acd4:	e5933000 	ldr	r3, [r3]
    acd8:	e2833003 	add	r3, r3, #3
    acdc:	e59f23fc 	ldr	r2, [pc, #1020]	; b0e0 <main+0x3030>
    ace0:	e5823000 	str	r3, [r2]
    ace4:	e59f33fc 	ldr	r3, [pc, #1020]	; b0e8 <main+0x3038>
    ace8:	e5933000 	ldr	r3, [r3]
    acec:	e3530004 	cmp	r3, #4
    acf0:	da00003d 	ble	adec <main+0x2d3c>
    acf4:	e59f33e4 	ldr	r3, [pc, #996]	; b0e0 <main+0x3030>
    acf8:	e5933000 	ldr	r3, [r3]
    acfc:	e2833003 	add	r3, r3, #3
    ad00:	e3530006 	cmp	r3, #6
    ad04:	ca000038 	bgt	adec <main+0x2d3c>
    ad08:	e59f33c8 	ldr	r3, [pc, #968]	; b0d8 <main+0x3028>
    ad0c:	e5932010 	ldr	r2, [r3, #16]
    ad10:	e59f33c0 	ldr	r3, [pc, #960]	; b0d8 <main+0x3028>
    ad14:	e5933008 	ldr	r3, [r3, #8]
    ad18:	e1520003 	cmp	r2, r3
    ad1c:	1a000032 	bne	adec <main+0x2d3c>
    ad20:	e59f33b0 	ldr	r3, [pc, #944]	; b0d8 <main+0x3028>
    ad24:	e5932010 	ldr	r2, [r3, #16]
    ad28:	e59f33a8 	ldr	r3, [pc, #936]	; b0d8 <main+0x3028>
    ad2c:	e593300c 	ldr	r3, [r3, #12]
    ad30:	e1520003 	cmp	r2, r3
    ad34:	1a00002c 	bne	adec <main+0x2d3c>
    ad38:	e59f3398 	ldr	r3, [pc, #920]	; b0d8 <main+0x3028>
    ad3c:	e5933000 	ldr	r3, [r3]
    ad40:	e58d33cc 	str	r3, [sp, #972]	; 0x3cc
    ad44:	e59f338c 	ldr	r3, [pc, #908]	; b0d8 <main+0x3028>
    ad48:	e5933010 	ldr	r3, [r3, #16]
    ad4c:	e58d33c8 	str	r3, [sp, #968]	; 0x3c8
    ad50:	e59d23c8 	ldr	r2, [sp, #968]	; 0x3c8
    ad54:	e59d33cc 	ldr	r3, [sp, #972]	; 0x3cc
    ad58:	e1520003 	cmp	r2, r3
    ad5c:	da000022 	ble	adec <main+0x2d3c>
    ad60:	e59f3370 	ldr	r3, [pc, #880]	; b0d8 <main+0x3028>
    ad64:	e5933004 	ldr	r3, [r3, #4]
    ad68:	e59f2368 	ldr	r2, [pc, #872]	; b0d8 <main+0x3028>
    ad6c:	e5823000 	str	r3, [r2]
    ad70:	e59f3370 	ldr	r3, [pc, #880]	; b0e8 <main+0x3038>
    ad74:	e5933000 	ldr	r3, [r3]
    ad78:	e2433004 	sub	r3, r3, #4
    ad7c:	e59f2364 	ldr	r2, [pc, #868]	; b0e8 <main+0x3038>
    ad80:	e5823000 	str	r3, [r2]
    ad84:	e59d23cc 	ldr	r2, [sp, #972]	; 0x3cc
    ad88:	e59d33c8 	ldr	r3, [sp, #968]	; 0x3c8
    ad8c:	e0823003 	add	r3, r2, r3
    ad90:	e58d33c4 	str	r3, [sp, #964]	; 0x3c4
    ad94:	e59f3344 	ldr	r3, [pc, #836]	; b0e0 <main+0x3030>
    ad98:	e5933000 	ldr	r3, [r3]
    ad9c:	e59f1338 	ldr	r1, [pc, #824]	; b0dc <main+0x302c>
    ada0:	e59d23cc 	ldr	r2, [sp, #972]	; 0x3cc
    ada4:	e7812103 	str	r2, [r1, r3, lsl #2]
    ada8:	e59f3330 	ldr	r3, [pc, #816]	; b0e0 <main+0x3030>
    adac:	e5933000 	ldr	r3, [r3]
    adb0:	e2833001 	add	r3, r3, #1
    adb4:	e59f1320 	ldr	r1, [pc, #800]	; b0dc <main+0x302c>
    adb8:	e59d23c8 	ldr	r2, [sp, #968]	; 0x3c8
    adbc:	e7812103 	str	r2, [r1, r3, lsl #2]
    adc0:	e59f3318 	ldr	r3, [pc, #792]	; b0e0 <main+0x3030>
    adc4:	e5933000 	ldr	r3, [r3]
    adc8:	e2833002 	add	r3, r3, #2
    adcc:	e59f1308 	ldr	r1, [pc, #776]	; b0dc <main+0x302c>
    add0:	e59d23c4 	ldr	r2, [sp, #964]	; 0x3c4
    add4:	e7812103 	str	r2, [r1, r3, lsl #2]
    add8:	e59f3300 	ldr	r3, [pc, #768]	; b0e0 <main+0x3030>
    addc:	e5933000 	ldr	r3, [r3]
    ade0:	e2833003 	add	r3, r3, #3
    ade4:	e59f22f4 	ldr	r2, [pc, #756]	; b0e0 <main+0x3030>
    ade8:	e5823000 	str	r3, [r2]
    adec:	e59f32f4 	ldr	r3, [pc, #756]	; b0e8 <main+0x3038>
    adf0:	e5933000 	ldr	r3, [r3]
    adf4:	e3530004 	cmp	r3, #4
    adf8:	da00003d 	ble	aef4 <main+0x2e44>
    adfc:	e59f32dc 	ldr	r3, [pc, #732]	; b0e0 <main+0x3030>
    ae00:	e5933000 	ldr	r3, [r3]
    ae04:	e2833003 	add	r3, r3, #3
    ae08:	e3530006 	cmp	r3, #6
    ae0c:	ca000038 	bgt	aef4 <main+0x2e44>
    ae10:	e59f32c0 	ldr	r3, [pc, #704]	; b0d8 <main+0x3028>
    ae14:	e5932010 	ldr	r2, [r3, #16]
    ae18:	e59f32b8 	ldr	r3, [pc, #696]	; b0d8 <main+0x3028>
    ae1c:	e593300c 	ldr	r3, [r3, #12]
    ae20:	e1520003 	cmp	r2, r3
    ae24:	1a000032 	bne	aef4 <main+0x2e44>
    ae28:	e59f32a8 	ldr	r3, [pc, #680]	; b0d8 <main+0x3028>
    ae2c:	e5932010 	ldr	r2, [r3, #16]
    ae30:	e59f32a0 	ldr	r3, [pc, #672]	; b0d8 <main+0x3028>
    ae34:	e5933004 	ldr	r3, [r3, #4]
    ae38:	e1520003 	cmp	r2, r3
    ae3c:	1a00002c 	bne	aef4 <main+0x2e44>
    ae40:	e59f3290 	ldr	r3, [pc, #656]	; b0d8 <main+0x3028>
    ae44:	e5933000 	ldr	r3, [r3]
    ae48:	e58d33c0 	str	r3, [sp, #960]	; 0x3c0
    ae4c:	e59f3284 	ldr	r3, [pc, #644]	; b0d8 <main+0x3028>
    ae50:	e5933010 	ldr	r3, [r3, #16]
    ae54:	e58d33bc 	str	r3, [sp, #956]	; 0x3bc
    ae58:	e59d23bc 	ldr	r2, [sp, #956]	; 0x3bc
    ae5c:	e59d33c0 	ldr	r3, [sp, #960]	; 0x3c0
    ae60:	e1520003 	cmp	r2, r3
    ae64:	da000022 	ble	aef4 <main+0x2e44>
    ae68:	e59f3268 	ldr	r3, [pc, #616]	; b0d8 <main+0x3028>
    ae6c:	e5933008 	ldr	r3, [r3, #8]
    ae70:	e59f2260 	ldr	r2, [pc, #608]	; b0d8 <main+0x3028>
    ae74:	e5823000 	str	r3, [r2]
    ae78:	e59f3268 	ldr	r3, [pc, #616]	; b0e8 <main+0x3038>
    ae7c:	e5933000 	ldr	r3, [r3]
    ae80:	e2433004 	sub	r3, r3, #4
    ae84:	e59f225c 	ldr	r2, [pc, #604]	; b0e8 <main+0x3038>
    ae88:	e5823000 	str	r3, [r2]
    ae8c:	e59d23c0 	ldr	r2, [sp, #960]	; 0x3c0
    ae90:	e59d33bc 	ldr	r3, [sp, #956]	; 0x3bc
    ae94:	e0823003 	add	r3, r2, r3
    ae98:	e58d33b8 	str	r3, [sp, #952]	; 0x3b8
    ae9c:	e59f323c 	ldr	r3, [pc, #572]	; b0e0 <main+0x3030>
    aea0:	e5933000 	ldr	r3, [r3]
    aea4:	e59f1230 	ldr	r1, [pc, #560]	; b0dc <main+0x302c>
    aea8:	e59d23c0 	ldr	r2, [sp, #960]	; 0x3c0
    aeac:	e7812103 	str	r2, [r1, r3, lsl #2]
    aeb0:	e59f3228 	ldr	r3, [pc, #552]	; b0e0 <main+0x3030>
    aeb4:	e5933000 	ldr	r3, [r3]
    aeb8:	e2833001 	add	r3, r3, #1
    aebc:	e59f1218 	ldr	r1, [pc, #536]	; b0dc <main+0x302c>
    aec0:	e59d23bc 	ldr	r2, [sp, #956]	; 0x3bc
    aec4:	e7812103 	str	r2, [r1, r3, lsl #2]
    aec8:	e59f3210 	ldr	r3, [pc, #528]	; b0e0 <main+0x3030>
    aecc:	e5933000 	ldr	r3, [r3]
    aed0:	e2833002 	add	r3, r3, #2
    aed4:	e59f1200 	ldr	r1, [pc, #512]	; b0dc <main+0x302c>
    aed8:	e59d23b8 	ldr	r2, [sp, #952]	; 0x3b8
    aedc:	e7812103 	str	r2, [r1, r3, lsl #2]
    aee0:	e59f31f8 	ldr	r3, [pc, #504]	; b0e0 <main+0x3030>
    aee4:	e5933000 	ldr	r3, [r3]
    aee8:	e2833003 	add	r3, r3, #3
    aeec:	e59f21ec 	ldr	r2, [pc, #492]	; b0e0 <main+0x3030>
    aef0:	e5823000 	str	r3, [r2]
    aef4:	e59f31ec 	ldr	r3, [pc, #492]	; b0e8 <main+0x3038>
    aef8:	e5933000 	ldr	r3, [r3]
    aefc:	e3530004 	cmp	r3, #4
    af00:	da00003d 	ble	affc <main+0x2f4c>
    af04:	e59f31d4 	ldr	r3, [pc, #468]	; b0e0 <main+0x3030>
    af08:	e5933000 	ldr	r3, [r3]
    af0c:	e2833003 	add	r3, r3, #3
    af10:	e3530006 	cmp	r3, #6
    af14:	ca000038 	bgt	affc <main+0x2f4c>
    af18:	e59f31b8 	ldr	r3, [pc, #440]	; b0d8 <main+0x3028>
    af1c:	e5932010 	ldr	r2, [r3, #16]
    af20:	e59f31b0 	ldr	r3, [pc, #432]	; b0d8 <main+0x3028>
    af24:	e593300c 	ldr	r3, [r3, #12]
    af28:	e1520003 	cmp	r2, r3
    af2c:	1a000032 	bne	affc <main+0x2f4c>
    af30:	e59f31a0 	ldr	r3, [pc, #416]	; b0d8 <main+0x3028>
    af34:	e5932010 	ldr	r2, [r3, #16]
    af38:	e59f3198 	ldr	r3, [pc, #408]	; b0d8 <main+0x3028>
    af3c:	e5933008 	ldr	r3, [r3, #8]
    af40:	e1520003 	cmp	r2, r3
    af44:	1a00002c 	bne	affc <main+0x2f4c>
    af48:	e59f3188 	ldr	r3, [pc, #392]	; b0d8 <main+0x3028>
    af4c:	e5933000 	ldr	r3, [r3]
    af50:	e58d33b4 	str	r3, [sp, #948]	; 0x3b4
    af54:	e59f317c 	ldr	r3, [pc, #380]	; b0d8 <main+0x3028>
    af58:	e5933010 	ldr	r3, [r3, #16]
    af5c:	e58d33b0 	str	r3, [sp, #944]	; 0x3b0
    af60:	e59d23b0 	ldr	r2, [sp, #944]	; 0x3b0
    af64:	e59d33b4 	ldr	r3, [sp, #948]	; 0x3b4
    af68:	e1520003 	cmp	r2, r3
    af6c:	da000022 	ble	affc <main+0x2f4c>
    af70:	e59f3160 	ldr	r3, [pc, #352]	; b0d8 <main+0x3028>
    af74:	e5933004 	ldr	r3, [r3, #4]
    af78:	e59f2158 	ldr	r2, [pc, #344]	; b0d8 <main+0x3028>
    af7c:	e5823000 	str	r3, [r2]
    af80:	e59f3160 	ldr	r3, [pc, #352]	; b0e8 <main+0x3038>
    af84:	e5933000 	ldr	r3, [r3]
    af88:	e2433004 	sub	r3, r3, #4
    af8c:	e59f2154 	ldr	r2, [pc, #340]	; b0e8 <main+0x3038>
    af90:	e5823000 	str	r3, [r2]
    af94:	e59d23b4 	ldr	r2, [sp, #948]	; 0x3b4
    af98:	e59d33b0 	ldr	r3, [sp, #944]	; 0x3b0
    af9c:	e0823003 	add	r3, r2, r3
    afa0:	e58d33ac 	str	r3, [sp, #940]	; 0x3ac
    afa4:	e59f3134 	ldr	r3, [pc, #308]	; b0e0 <main+0x3030>
    afa8:	e5933000 	ldr	r3, [r3]
    afac:	e59f1128 	ldr	r1, [pc, #296]	; b0dc <main+0x302c>
    afb0:	e59d23b4 	ldr	r2, [sp, #948]	; 0x3b4
    afb4:	e7812103 	str	r2, [r1, r3, lsl #2]
    afb8:	e59f3120 	ldr	r3, [pc, #288]	; b0e0 <main+0x3030>
    afbc:	e5933000 	ldr	r3, [r3]
    afc0:	e2833001 	add	r3, r3, #1
    afc4:	e59f1110 	ldr	r1, [pc, #272]	; b0dc <main+0x302c>
    afc8:	e59d23b0 	ldr	r2, [sp, #944]	; 0x3b0
    afcc:	e7812103 	str	r2, [r1, r3, lsl #2]
    afd0:	e59f3108 	ldr	r3, [pc, #264]	; b0e0 <main+0x3030>
    afd4:	e5933000 	ldr	r3, [r3]
    afd8:	e2833002 	add	r3, r3, #2
    afdc:	e59f10f8 	ldr	r1, [pc, #248]	; b0dc <main+0x302c>
    afe0:	e59d23ac 	ldr	r2, [sp, #940]	; 0x3ac
    afe4:	e7812103 	str	r2, [r1, r3, lsl #2]
    afe8:	e59f30f0 	ldr	r3, [pc, #240]	; b0e0 <main+0x3030>
    afec:	e5933000 	ldr	r3, [r3]
    aff0:	e2833003 	add	r3, r3, #3
    aff4:	e59f20e4 	ldr	r2, [pc, #228]	; b0e0 <main+0x3030>
    aff8:	e5823000 	str	r3, [r2]
    affc:	e59f30e4 	ldr	r3, [pc, #228]	; b0e8 <main+0x3038>
    b000:	e5933000 	ldr	r3, [r3]
    b004:	e3530004 	cmp	r3, #4
    b008:	da000043 	ble	b11c <main+0x306c>
    b00c:	e59f30cc 	ldr	r3, [pc, #204]	; b0e0 <main+0x3030>
    b010:	e5933000 	ldr	r3, [r3]
    b014:	e2833003 	add	r3, r3, #3
    b018:	e3530006 	cmp	r3, #6
    b01c:	ca00003e 	bgt	b11c <main+0x306c>
    b020:	e59f30b0 	ldr	r3, [pc, #176]	; b0d8 <main+0x3028>
    b024:	e5932000 	ldr	r2, [r3]
    b028:	e59f30a8 	ldr	r3, [pc, #168]	; b0d8 <main+0x3028>
    b02c:	e5933008 	ldr	r3, [r3, #8]
    b030:	e1520003 	cmp	r2, r3
    b034:	1a000038 	bne	b11c <main+0x306c>
    b038:	e59f3098 	ldr	r3, [pc, #152]	; b0d8 <main+0x3028>
    b03c:	e5932000 	ldr	r2, [r3]
    b040:	e59f3090 	ldr	r3, [pc, #144]	; b0d8 <main+0x3028>
    b044:	e5933010 	ldr	r3, [r3, #16]
    b048:	e1520003 	cmp	r2, r3
    b04c:	1a000032 	bne	b11c <main+0x306c>
    b050:	e59f3080 	ldr	r3, [pc, #128]	; b0d8 <main+0x3028>
    b054:	e5933004 	ldr	r3, [r3, #4]
    b058:	e58d33a8 	str	r3, [sp, #936]	; 0x3a8
    b05c:	e59f3074 	ldr	r3, [pc, #116]	; b0d8 <main+0x3028>
    b060:	e5933000 	ldr	r3, [r3]
    b064:	e58d33a4 	str	r3, [sp, #932]	; 0x3a4
    b068:	e59d23a4 	ldr	r2, [sp, #932]	; 0x3a4
    b06c:	e59d33a8 	ldr	r3, [sp, #936]	; 0x3a8
    b070:	e1520003 	cmp	r2, r3
    b074:	da000028 	ble	b11c <main+0x306c>
    b078:	e59f3058 	ldr	r3, [pc, #88]	; b0d8 <main+0x3028>
    b07c:	e593300c 	ldr	r3, [r3, #12]
    b080:	e59f2050 	ldr	r2, [pc, #80]	; b0d8 <main+0x3028>
    b084:	e5823000 	str	r3, [r2]
    b088:	e59f3058 	ldr	r3, [pc, #88]	; b0e8 <main+0x3038>
    b08c:	e5933000 	ldr	r3, [r3]
    b090:	e2433004 	sub	r3, r3, #4
    b094:	e59f204c 	ldr	r2, [pc, #76]	; b0e8 <main+0x3038>
    b098:	e5823000 	str	r3, [r2]
    b09c:	e59d23a8 	ldr	r2, [sp, #936]	; 0x3a8
    b0a0:	e59d33a4 	ldr	r3, [sp, #932]	; 0x3a4
    b0a4:	e0823003 	add	r3, r2, r3
    b0a8:	e58d33a0 	str	r3, [sp, #928]	; 0x3a0
    b0ac:	e59f302c 	ldr	r3, [pc, #44]	; b0e0 <main+0x3030>
    b0b0:	e5933000 	ldr	r3, [r3]
    b0b4:	e59f1020 	ldr	r1, [pc, #32]	; b0dc <main+0x302c>
    b0b8:	e59d23a8 	ldr	r2, [sp, #936]	; 0x3a8
    b0bc:	e7812103 	str	r2, [r1, r3, lsl #2]
    b0c0:	e59f3018 	ldr	r3, [pc, #24]	; b0e0 <main+0x3030>
    b0c4:	e5933000 	ldr	r3, [r3]
    b0c8:	e2833001 	add	r3, r3, #1
    b0cc:	e59f1008 	ldr	r1, [pc, #8]	; b0dc <main+0x302c>
    b0d0:	e59d23a4 	ldr	r2, [sp, #932]	; 0x3a4
    b0d4:	ea000004 	b	b0ec <main+0x303c>
    b0d8:	0001ff8c 	.word	0x0001ff8c
    b0dc:	0001ff68 	.word	0x0001ff68
    b0e0:	0001ff64 	.word	0x0001ff64
    b0e4:	0001ff8c 	.word	0x0001ff8c
    b0e8:	0001ff60 	.word	0x0001ff60
    b0ec:	e7812103 	str	r2, [r1, r3, lsl #2]
    b0f0:	e51f3018 	ldr	r3, [pc, #-24]	; b0e0 <main+0x3030>
    b0f4:	e5933000 	ldr	r3, [r3]
    b0f8:	e2833002 	add	r3, r3, #2
    b0fc:	e51f1028 	ldr	r1, [pc, #-40]	; b0dc <main+0x302c>
    b100:	e59d23a0 	ldr	r2, [sp, #928]	; 0x3a0
    b104:	e7812103 	str	r2, [r1, r3, lsl #2]
    b108:	e51f3030 	ldr	r3, [pc, #-48]	; b0e0 <main+0x3030>
    b10c:	e5933000 	ldr	r3, [r3]
    b110:	e2833003 	add	r3, r3, #3
    b114:	e51f203c 	ldr	r2, [pc, #-60]	; b0e0 <main+0x3030>
    b118:	e5823000 	str	r3, [r2]
    b11c:	e51f303c 	ldr	r3, [pc, #-60]	; b0e8 <main+0x3038>
    b120:	e5933000 	ldr	r3, [r3]
    b124:	e3530004 	cmp	r3, #4
    b128:	da00003d 	ble	b224 <main+0x3174>
    b12c:	e51f3054 	ldr	r3, [pc, #-84]	; b0e0 <main+0x3030>
    b130:	e5933000 	ldr	r3, [r3]
    b134:	e2833003 	add	r3, r3, #3
    b138:	e3530006 	cmp	r3, #6
    b13c:	ca000038 	bgt	b224 <main+0x3174>
    b140:	e51f3064 	ldr	r3, [pc, #-100]	; b0e4 <main+0x3034>
    b144:	e5932000 	ldr	r2, [r3]
    b148:	e51f306c 	ldr	r3, [pc, #-108]	; b0e4 <main+0x3034>
    b14c:	e593300c 	ldr	r3, [r3, #12]
    b150:	e1520003 	cmp	r2, r3
    b154:	1a000032 	bne	b224 <main+0x3174>
    b158:	e51f307c 	ldr	r3, [pc, #-124]	; b0e4 <main+0x3034>
    b15c:	e5932000 	ldr	r2, [r3]
    b160:	e51f3084 	ldr	r3, [pc, #-132]	; b0e4 <main+0x3034>
    b164:	e5933010 	ldr	r3, [r3, #16]
    b168:	e1520003 	cmp	r2, r3
    b16c:	1a00002c 	bne	b224 <main+0x3174>
    b170:	e51f3094 	ldr	r3, [pc, #-148]	; b0e4 <main+0x3034>
    b174:	e5933004 	ldr	r3, [r3, #4]
    b178:	e58d339c 	str	r3, [sp, #924]	; 0x39c
    b17c:	e51f30a0 	ldr	r3, [pc, #-160]	; b0e4 <main+0x3034>
    b180:	e5933000 	ldr	r3, [r3]
    b184:	e58d3398 	str	r3, [sp, #920]	; 0x398
    b188:	e59d2398 	ldr	r2, [sp, #920]	; 0x398
    b18c:	e59d339c 	ldr	r3, [sp, #924]	; 0x39c
    b190:	e1520003 	cmp	r2, r3
    b194:	da000022 	ble	b224 <main+0x3174>
    b198:	e51f30bc 	ldr	r3, [pc, #-188]	; b0e4 <main+0x3034>
    b19c:	e5933008 	ldr	r3, [r3, #8]
    b1a0:	e51f20c4 	ldr	r2, [pc, #-196]	; b0e4 <main+0x3034>
    b1a4:	e5823000 	str	r3, [r2]
    b1a8:	e51f30c8 	ldr	r3, [pc, #-200]	; b0e8 <main+0x3038>
    b1ac:	e5933000 	ldr	r3, [r3]
    b1b0:	e2433004 	sub	r3, r3, #4
    b1b4:	e51f20d4 	ldr	r2, [pc, #-212]	; b0e8 <main+0x3038>
    b1b8:	e5823000 	str	r3, [r2]
    b1bc:	e59d239c 	ldr	r2, [sp, #924]	; 0x39c
    b1c0:	e59d3398 	ldr	r3, [sp, #920]	; 0x398
    b1c4:	e0823003 	add	r3, r2, r3
    b1c8:	e58d3394 	str	r3, [sp, #916]	; 0x394
    b1cc:	e51f30f4 	ldr	r3, [pc, #-244]	; b0e0 <main+0x3030>
    b1d0:	e5933000 	ldr	r3, [r3]
    b1d4:	e51f1100 	ldr	r1, [pc, #-256]	; b0dc <main+0x302c>
    b1d8:	e59d239c 	ldr	r2, [sp, #924]	; 0x39c
    b1dc:	e7812103 	str	r2, [r1, r3, lsl #2]
    b1e0:	e51f3108 	ldr	r3, [pc, #-264]	; b0e0 <main+0x3030>
    b1e4:	e5933000 	ldr	r3, [r3]
    b1e8:	e2833001 	add	r3, r3, #1
    b1ec:	e51f1118 	ldr	r1, [pc, #-280]	; b0dc <main+0x302c>
    b1f0:	e59d2398 	ldr	r2, [sp, #920]	; 0x398
    b1f4:	e7812103 	str	r2, [r1, r3, lsl #2]
    b1f8:	e51f3120 	ldr	r3, [pc, #-288]	; b0e0 <main+0x3030>
    b1fc:	e5933000 	ldr	r3, [r3]
    b200:	e2833002 	add	r3, r3, #2
    b204:	e51f1130 	ldr	r1, [pc, #-304]	; b0dc <main+0x302c>
    b208:	e59d2394 	ldr	r2, [sp, #916]	; 0x394
    b20c:	e7812103 	str	r2, [r1, r3, lsl #2]
    b210:	e51f3138 	ldr	r3, [pc, #-312]	; b0e0 <main+0x3030>
    b214:	e5933000 	ldr	r3, [r3]
    b218:	e2833003 	add	r3, r3, #3
    b21c:	e51f2144 	ldr	r2, [pc, #-324]	; b0e0 <main+0x3030>
    b220:	e5823000 	str	r3, [r2]
    b224:	e51f3144 	ldr	r3, [pc, #-324]	; b0e8 <main+0x3038>
    b228:	e5933000 	ldr	r3, [r3]
    b22c:	e3530004 	cmp	r3, #4
    b230:	da00003d 	ble	b32c <main+0x327c>
    b234:	e51f315c 	ldr	r3, [pc, #-348]	; b0e0 <main+0x3030>
    b238:	e5933000 	ldr	r3, [r3]
    b23c:	e2833003 	add	r3, r3, #3
    b240:	e3530006 	cmp	r3, #6
    b244:	ca000038 	bgt	b32c <main+0x327c>
    b248:	e51f316c 	ldr	r3, [pc, #-364]	; b0e4 <main+0x3034>
    b24c:	e5932000 	ldr	r2, [r3]
    b250:	e51f3174 	ldr	r3, [pc, #-372]	; b0e4 <main+0x3034>
    b254:	e5933010 	ldr	r3, [r3, #16]
    b258:	e1520003 	cmp	r2, r3
    b25c:	1a000032 	bne	b32c <main+0x327c>
    b260:	e51f3184 	ldr	r3, [pc, #-388]	; b0e4 <main+0x3034>
    b264:	e5932000 	ldr	r2, [r3]
    b268:	e51f318c 	ldr	r3, [pc, #-396]	; b0e4 <main+0x3034>
    b26c:	e5933008 	ldr	r3, [r3, #8]
    b270:	e1520003 	cmp	r2, r3
    b274:	1a00002c 	bne	b32c <main+0x327c>
    b278:	e51f319c 	ldr	r3, [pc, #-412]	; b0e4 <main+0x3034>
    b27c:	e5933004 	ldr	r3, [r3, #4]
    b280:	e58d3390 	str	r3, [sp, #912]	; 0x390
    b284:	e51f31a8 	ldr	r3, [pc, #-424]	; b0e4 <main+0x3034>
    b288:	e5933000 	ldr	r3, [r3]
    b28c:	e58d338c 	str	r3, [sp, #908]	; 0x38c
    b290:	e59d238c 	ldr	r2, [sp, #908]	; 0x38c
    b294:	e59d3390 	ldr	r3, [sp, #912]	; 0x390
    b298:	e1520003 	cmp	r2, r3
    b29c:	da000022 	ble	b32c <main+0x327c>
    b2a0:	e51f31c4 	ldr	r3, [pc, #-452]	; b0e4 <main+0x3034>
    b2a4:	e593300c 	ldr	r3, [r3, #12]
    b2a8:	e51f21cc 	ldr	r2, [pc, #-460]	; b0e4 <main+0x3034>
    b2ac:	e5823000 	str	r3, [r2]
    b2b0:	e51f31d0 	ldr	r3, [pc, #-464]	; b0e8 <main+0x3038>
    b2b4:	e5933000 	ldr	r3, [r3]
    b2b8:	e2433004 	sub	r3, r3, #4
    b2bc:	e51f21dc 	ldr	r2, [pc, #-476]	; b0e8 <main+0x3038>
    b2c0:	e5823000 	str	r3, [r2]
    b2c4:	e59d2390 	ldr	r2, [sp, #912]	; 0x390
    b2c8:	e59d338c 	ldr	r3, [sp, #908]	; 0x38c
    b2cc:	e0823003 	add	r3, r2, r3
    b2d0:	e58d3388 	str	r3, [sp, #904]	; 0x388
    b2d4:	e51f31fc 	ldr	r3, [pc, #-508]	; b0e0 <main+0x3030>
    b2d8:	e5933000 	ldr	r3, [r3]
    b2dc:	e51f1208 	ldr	r1, [pc, #-520]	; b0dc <main+0x302c>
    b2e0:	e59d2390 	ldr	r2, [sp, #912]	; 0x390
    b2e4:	e7812103 	str	r2, [r1, r3, lsl #2]
    b2e8:	e51f3210 	ldr	r3, [pc, #-528]	; b0e0 <main+0x3030>
    b2ec:	e5933000 	ldr	r3, [r3]
    b2f0:	e2833001 	add	r3, r3, #1
    b2f4:	e51f1220 	ldr	r1, [pc, #-544]	; b0dc <main+0x302c>
    b2f8:	e59d238c 	ldr	r2, [sp, #908]	; 0x38c
    b2fc:	e7812103 	str	r2, [r1, r3, lsl #2]
    b300:	e51f3228 	ldr	r3, [pc, #-552]	; b0e0 <main+0x3030>
    b304:	e5933000 	ldr	r3, [r3]
    b308:	e2833002 	add	r3, r3, #2
    b30c:	e51f1238 	ldr	r1, [pc, #-568]	; b0dc <main+0x302c>
    b310:	e59d2388 	ldr	r2, [sp, #904]	; 0x388
    b314:	e7812103 	str	r2, [r1, r3, lsl #2]
    b318:	e51f3240 	ldr	r3, [pc, #-576]	; b0e0 <main+0x3030>
    b31c:	e5933000 	ldr	r3, [r3]
    b320:	e2833003 	add	r3, r3, #3
    b324:	e51f224c 	ldr	r2, [pc, #-588]	; b0e0 <main+0x3030>
    b328:	e5823000 	str	r3, [r2]
    b32c:	e51f324c 	ldr	r3, [pc, #-588]	; b0e8 <main+0x3038>
    b330:	e5933000 	ldr	r3, [r3]
    b334:	e3530004 	cmp	r3, #4
    b338:	da00003d 	ble	b434 <main+0x3384>
    b33c:	e51f3264 	ldr	r3, [pc, #-612]	; b0e0 <main+0x3030>
    b340:	e5933000 	ldr	r3, [r3]
    b344:	e2833003 	add	r3, r3, #3
    b348:	e3530006 	cmp	r3, #6
    b34c:	ca000038 	bgt	b434 <main+0x3384>
    b350:	e51f3274 	ldr	r3, [pc, #-628]	; b0e4 <main+0x3034>
    b354:	e5932000 	ldr	r2, [r3]
    b358:	e51f327c 	ldr	r3, [pc, #-636]	; b0e4 <main+0x3034>
    b35c:	e5933010 	ldr	r3, [r3, #16]
    b360:	e1520003 	cmp	r2, r3
    b364:	1a000032 	bne	b434 <main+0x3384>
    b368:	e51f328c 	ldr	r3, [pc, #-652]	; b0e4 <main+0x3034>
    b36c:	e5932000 	ldr	r2, [r3]
    b370:	e51f3294 	ldr	r3, [pc, #-660]	; b0e4 <main+0x3034>
    b374:	e593300c 	ldr	r3, [r3, #12]
    b378:	e1520003 	cmp	r2, r3
    b37c:	1a00002c 	bne	b434 <main+0x3384>
    b380:	e51f32a4 	ldr	r3, [pc, #-676]	; b0e4 <main+0x3034>
    b384:	e5933004 	ldr	r3, [r3, #4]
    b388:	e58d3384 	str	r3, [sp, #900]	; 0x384
    b38c:	e51f32b0 	ldr	r3, [pc, #-688]	; b0e4 <main+0x3034>
    b390:	e5933000 	ldr	r3, [r3]
    b394:	e58d3380 	str	r3, [sp, #896]	; 0x380
    b398:	e59d2380 	ldr	r2, [sp, #896]	; 0x380
    b39c:	e59d3384 	ldr	r3, [sp, #900]	; 0x384
    b3a0:	e1520003 	cmp	r2, r3
    b3a4:	da000022 	ble	b434 <main+0x3384>
    b3a8:	e51f32cc 	ldr	r3, [pc, #-716]	; b0e4 <main+0x3034>
    b3ac:	e5933008 	ldr	r3, [r3, #8]
    b3b0:	e51f22d4 	ldr	r2, [pc, #-724]	; b0e4 <main+0x3034>
    b3b4:	e5823000 	str	r3, [r2]
    b3b8:	e51f32d8 	ldr	r3, [pc, #-728]	; b0e8 <main+0x3038>
    b3bc:	e5933000 	ldr	r3, [r3]
    b3c0:	e2433004 	sub	r3, r3, #4
    b3c4:	e51f22e4 	ldr	r2, [pc, #-740]	; b0e8 <main+0x3038>
    b3c8:	e5823000 	str	r3, [r2]
    b3cc:	e59d2384 	ldr	r2, [sp, #900]	; 0x384
    b3d0:	e59d3380 	ldr	r3, [sp, #896]	; 0x380
    b3d4:	e0823003 	add	r3, r2, r3
    b3d8:	e58d337c 	str	r3, [sp, #892]	; 0x37c
    b3dc:	e51f3304 	ldr	r3, [pc, #-772]	; b0e0 <main+0x3030>
    b3e0:	e5933000 	ldr	r3, [r3]
    b3e4:	e51f1310 	ldr	r1, [pc, #-784]	; b0dc <main+0x302c>
    b3e8:	e59d2384 	ldr	r2, [sp, #900]	; 0x384
    b3ec:	e7812103 	str	r2, [r1, r3, lsl #2]
    b3f0:	e51f3318 	ldr	r3, [pc, #-792]	; b0e0 <main+0x3030>
    b3f4:	e5933000 	ldr	r3, [r3]
    b3f8:	e2833001 	add	r3, r3, #1
    b3fc:	e51f1328 	ldr	r1, [pc, #-808]	; b0dc <main+0x302c>
    b400:	e59d2380 	ldr	r2, [sp, #896]	; 0x380
    b404:	e7812103 	str	r2, [r1, r3, lsl #2]
    b408:	e51f3330 	ldr	r3, [pc, #-816]	; b0e0 <main+0x3030>
    b40c:	e5933000 	ldr	r3, [r3]
    b410:	e2833002 	add	r3, r3, #2
    b414:	e51f1340 	ldr	r1, [pc, #-832]	; b0dc <main+0x302c>
    b418:	e59d237c 	ldr	r2, [sp, #892]	; 0x37c
    b41c:	e7812103 	str	r2, [r1, r3, lsl #2]
    b420:	e51f3348 	ldr	r3, [pc, #-840]	; b0e0 <main+0x3030>
    b424:	e5933000 	ldr	r3, [r3]
    b428:	e2833003 	add	r3, r3, #3
    b42c:	e51f2354 	ldr	r2, [pc, #-852]	; b0e0 <main+0x3030>
    b430:	e5823000 	str	r3, [r2]
    b434:	e51f3354 	ldr	r3, [pc, #-852]	; b0e8 <main+0x3038>
    b438:	e5933000 	ldr	r3, [r3]
    b43c:	e3530004 	cmp	r3, #4
    b440:	da00003d 	ble	b53c <main+0x348c>
    b444:	e51f336c 	ldr	r3, [pc, #-876]	; b0e0 <main+0x3030>
    b448:	e5933000 	ldr	r3, [r3]
    b44c:	e2833003 	add	r3, r3, #3
    b450:	e3530006 	cmp	r3, #6
    b454:	ca000038 	bgt	b53c <main+0x348c>
    b458:	e51f337c 	ldr	r3, [pc, #-892]	; b0e4 <main+0x3034>
    b45c:	e5932008 	ldr	r2, [r3, #8]
    b460:	e51f3384 	ldr	r3, [pc, #-900]	; b0e4 <main+0x3034>
    b464:	e5933000 	ldr	r3, [r3]
    b468:	e1520003 	cmp	r2, r3
    b46c:	1a000032 	bne	b53c <main+0x348c>
    b470:	e51f3394 	ldr	r3, [pc, #-916]	; b0e4 <main+0x3034>
    b474:	e5932008 	ldr	r2, [r3, #8]
    b478:	e51f339c 	ldr	r3, [pc, #-924]	; b0e4 <main+0x3034>
    b47c:	e5933010 	ldr	r3, [r3, #16]
    b480:	e1520003 	cmp	r2, r3
    b484:	1a00002c 	bne	b53c <main+0x348c>
    b488:	e51f33ac 	ldr	r3, [pc, #-940]	; b0e4 <main+0x3034>
    b48c:	e5933004 	ldr	r3, [r3, #4]
    b490:	e58d3378 	str	r3, [sp, #888]	; 0x378
    b494:	e51f33b8 	ldr	r3, [pc, #-952]	; b0e4 <main+0x3034>
    b498:	e5933008 	ldr	r3, [r3, #8]
    b49c:	e58d3374 	str	r3, [sp, #884]	; 0x374
    b4a0:	e59d2374 	ldr	r2, [sp, #884]	; 0x374
    b4a4:	e59d3378 	ldr	r3, [sp, #888]	; 0x378
    b4a8:	e1520003 	cmp	r2, r3
    b4ac:	da000022 	ble	b53c <main+0x348c>
    b4b0:	e51f33d4 	ldr	r3, [pc, #-980]	; b0e4 <main+0x3034>
    b4b4:	e593300c 	ldr	r3, [r3, #12]
    b4b8:	e51f23dc 	ldr	r2, [pc, #-988]	; b0e4 <main+0x3034>
    b4bc:	e5823000 	str	r3, [r2]
    b4c0:	e51f33e0 	ldr	r3, [pc, #-992]	; b0e8 <main+0x3038>
    b4c4:	e5933000 	ldr	r3, [r3]
    b4c8:	e2433004 	sub	r3, r3, #4
    b4cc:	e51f23ec 	ldr	r2, [pc, #-1004]	; b0e8 <main+0x3038>
    b4d0:	e5823000 	str	r3, [r2]
    b4d4:	e59d2378 	ldr	r2, [sp, #888]	; 0x378
    b4d8:	e59d3374 	ldr	r3, [sp, #884]	; 0x374
    b4dc:	e0823003 	add	r3, r2, r3
    b4e0:	e58d3370 	str	r3, [sp, #880]	; 0x370
    b4e4:	e51f340c 	ldr	r3, [pc, #-1036]	; b0e0 <main+0x3030>
    b4e8:	e5933000 	ldr	r3, [r3]
    b4ec:	e51f1418 	ldr	r1, [pc, #-1048]	; b0dc <main+0x302c>
    b4f0:	e59d2378 	ldr	r2, [sp, #888]	; 0x378
    b4f4:	e7812103 	str	r2, [r1, r3, lsl #2]
    b4f8:	e51f3420 	ldr	r3, [pc, #-1056]	; b0e0 <main+0x3030>
    b4fc:	e5933000 	ldr	r3, [r3]
    b500:	e2833001 	add	r3, r3, #1
    b504:	e51f1430 	ldr	r1, [pc, #-1072]	; b0dc <main+0x302c>
    b508:	e59d2374 	ldr	r2, [sp, #884]	; 0x374
    b50c:	e7812103 	str	r2, [r1, r3, lsl #2]
    b510:	e51f3438 	ldr	r3, [pc, #-1080]	; b0e0 <main+0x3030>
    b514:	e5933000 	ldr	r3, [r3]
    b518:	e2833002 	add	r3, r3, #2
    b51c:	e51f1448 	ldr	r1, [pc, #-1096]	; b0dc <main+0x302c>
    b520:	e59d2370 	ldr	r2, [sp, #880]	; 0x370
    b524:	e7812103 	str	r2, [r1, r3, lsl #2]
    b528:	e51f3450 	ldr	r3, [pc, #-1104]	; b0e0 <main+0x3030>
    b52c:	e5933000 	ldr	r3, [r3]
    b530:	e2833003 	add	r3, r3, #3
    b534:	e51f245c 	ldr	r2, [pc, #-1116]	; b0e0 <main+0x3030>
    b538:	e5823000 	str	r3, [r2]
    b53c:	e51f345c 	ldr	r3, [pc, #-1116]	; b0e8 <main+0x3038>
    b540:	e5933000 	ldr	r3, [r3]
    b544:	e3530004 	cmp	r3, #4
    b548:	da000039 	ble	b634 <main+0x3584>
    b54c:	e51f3474 	ldr	r3, [pc, #-1140]	; b0e0 <main+0x3030>
    b550:	e5933000 	ldr	r3, [r3]
    b554:	e2833003 	add	r3, r3, #3
    b558:	e3530006 	cmp	r3, #6
    b55c:	ca000034 	bgt	b634 <main+0x3584>
    b560:	e51f3484 	ldr	r3, [pc, #-1156]	; b0e4 <main+0x3034>
    b564:	e5932008 	ldr	r2, [r3, #8]
    b568:	e51f348c 	ldr	r3, [pc, #-1164]	; b0e4 <main+0x3034>
    b56c:	e593300c 	ldr	r3, [r3, #12]
    b570:	e1520003 	cmp	r2, r3
    b574:	1a00002e 	bne	b634 <main+0x3584>
    b578:	e51f349c 	ldr	r3, [pc, #-1180]	; b0e4 <main+0x3034>
    b57c:	e5932008 	ldr	r2, [r3, #8]
    b580:	e51f34a4 	ldr	r3, [pc, #-1188]	; b0e4 <main+0x3034>
    b584:	e5933010 	ldr	r3, [r3, #16]
    b588:	e1520003 	cmp	r2, r3
    b58c:	1a000028 	bne	b634 <main+0x3584>
    b590:	e51f34b4 	ldr	r3, [pc, #-1204]	; b0e4 <main+0x3034>
    b594:	e5933004 	ldr	r3, [r3, #4]
    b598:	e58d336c 	str	r3, [sp, #876]	; 0x36c
    b59c:	e51f34c0 	ldr	r3, [pc, #-1216]	; b0e4 <main+0x3034>
    b5a0:	e5933008 	ldr	r3, [r3, #8]
    b5a4:	e58d3368 	str	r3, [sp, #872]	; 0x368
    b5a8:	e59d2368 	ldr	r2, [sp, #872]	; 0x368
    b5ac:	e59d336c 	ldr	r3, [sp, #876]	; 0x36c
    b5b0:	e1520003 	cmp	r2, r3
    b5b4:	da00001e 	ble	b634 <main+0x3584>
    b5b8:	e51f34d8 	ldr	r3, [pc, #-1240]	; b0e8 <main+0x3038>
    b5bc:	e5933000 	ldr	r3, [r3]
    b5c0:	e2433004 	sub	r3, r3, #4
    b5c4:	e51f24e4 	ldr	r2, [pc, #-1252]	; b0e8 <main+0x3038>
    b5c8:	e5823000 	str	r3, [r2]
    b5cc:	e59d236c 	ldr	r2, [sp, #876]	; 0x36c
    b5d0:	e59d3368 	ldr	r3, [sp, #872]	; 0x368
    b5d4:	e0823003 	add	r3, r2, r3
    b5d8:	e58d3364 	str	r3, [sp, #868]	; 0x364
    b5dc:	e51f3504 	ldr	r3, [pc, #-1284]	; b0e0 <main+0x3030>
    b5e0:	e5933000 	ldr	r3, [r3]
    b5e4:	e51f1510 	ldr	r1, [pc, #-1296]	; b0dc <main+0x302c>
    b5e8:	e59d236c 	ldr	r2, [sp, #876]	; 0x36c
    b5ec:	e7812103 	str	r2, [r1, r3, lsl #2]
    b5f0:	e51f3518 	ldr	r3, [pc, #-1304]	; b0e0 <main+0x3030>
    b5f4:	e5933000 	ldr	r3, [r3]
    b5f8:	e2833001 	add	r3, r3, #1
    b5fc:	e51f1528 	ldr	r1, [pc, #-1320]	; b0dc <main+0x302c>
    b600:	e59d2368 	ldr	r2, [sp, #872]	; 0x368
    b604:	e7812103 	str	r2, [r1, r3, lsl #2]
    b608:	e51f3530 	ldr	r3, [pc, #-1328]	; b0e0 <main+0x3030>
    b60c:	e5933000 	ldr	r3, [r3]
    b610:	e2833002 	add	r3, r3, #2
    b614:	e51f1540 	ldr	r1, [pc, #-1344]	; b0dc <main+0x302c>
    b618:	e59d2364 	ldr	r2, [sp, #868]	; 0x364
    b61c:	e7812103 	str	r2, [r1, r3, lsl #2]
    b620:	e51f3548 	ldr	r3, [pc, #-1352]	; b0e0 <main+0x3030>
    b624:	e5933000 	ldr	r3, [r3]
    b628:	e2833003 	add	r3, r3, #3
    b62c:	e51f2554 	ldr	r2, [pc, #-1364]	; b0e0 <main+0x3030>
    b630:	e5823000 	str	r3, [r2]
    b634:	e51f3554 	ldr	r3, [pc, #-1364]	; b0e8 <main+0x3038>
    b638:	e5933000 	ldr	r3, [r3]
    b63c:	e3530004 	cmp	r3, #4
    b640:	da00003d 	ble	b73c <main+0x368c>
    b644:	e51f356c 	ldr	r3, [pc, #-1388]	; b0e0 <main+0x3030>
    b648:	e5933000 	ldr	r3, [r3]
    b64c:	e2833003 	add	r3, r3, #3
    b650:	e3530006 	cmp	r3, #6
    b654:	ca000038 	bgt	b73c <main+0x368c>
    b658:	e51f357c 	ldr	r3, [pc, #-1404]	; b0e4 <main+0x3034>
    b65c:	e5932008 	ldr	r2, [r3, #8]
    b660:	e51f3584 	ldr	r3, [pc, #-1412]	; b0e4 <main+0x3034>
    b664:	e5933010 	ldr	r3, [r3, #16]
    b668:	e1520003 	cmp	r2, r3
    b66c:	1a000032 	bne	b73c <main+0x368c>
    b670:	e51f3594 	ldr	r3, [pc, #-1428]	; b0e4 <main+0x3034>
    b674:	e5932008 	ldr	r2, [r3, #8]
    b678:	e51f359c 	ldr	r3, [pc, #-1436]	; b0e4 <main+0x3034>
    b67c:	e5933000 	ldr	r3, [r3]
    b680:	e1520003 	cmp	r2, r3
    b684:	1a00002c 	bne	b73c <main+0x368c>
    b688:	e51f35ac 	ldr	r3, [pc, #-1452]	; b0e4 <main+0x3034>
    b68c:	e5933004 	ldr	r3, [r3, #4]
    b690:	e58d3360 	str	r3, [sp, #864]	; 0x360
    b694:	e51f35b8 	ldr	r3, [pc, #-1464]	; b0e4 <main+0x3034>
    b698:	e5933008 	ldr	r3, [r3, #8]
    b69c:	e58d335c 	str	r3, [sp, #860]	; 0x35c
    b6a0:	e59d235c 	ldr	r2, [sp, #860]	; 0x35c
    b6a4:	e59d3360 	ldr	r3, [sp, #864]	; 0x360
    b6a8:	e1520003 	cmp	r2, r3
    b6ac:	da000022 	ble	b73c <main+0x368c>
    b6b0:	e51f35d4 	ldr	r3, [pc, #-1492]	; b0e4 <main+0x3034>
    b6b4:	e593300c 	ldr	r3, [r3, #12]
    b6b8:	e51f25dc 	ldr	r2, [pc, #-1500]	; b0e4 <main+0x3034>
    b6bc:	e5823000 	str	r3, [r2]
    b6c0:	e51f35e0 	ldr	r3, [pc, #-1504]	; b0e8 <main+0x3038>
    b6c4:	e5933000 	ldr	r3, [r3]
    b6c8:	e2433004 	sub	r3, r3, #4
    b6cc:	e51f25ec 	ldr	r2, [pc, #-1516]	; b0e8 <main+0x3038>
    b6d0:	e5823000 	str	r3, [r2]
    b6d4:	e59d2360 	ldr	r2, [sp, #864]	; 0x360
    b6d8:	e59d335c 	ldr	r3, [sp, #860]	; 0x35c
    b6dc:	e0823003 	add	r3, r2, r3
    b6e0:	e58d3358 	str	r3, [sp, #856]	; 0x358
    b6e4:	e51f360c 	ldr	r3, [pc, #-1548]	; b0e0 <main+0x3030>
    b6e8:	e5933000 	ldr	r3, [r3]
    b6ec:	e51f1618 	ldr	r1, [pc, #-1560]	; b0dc <main+0x302c>
    b6f0:	e59d2360 	ldr	r2, [sp, #864]	; 0x360
    b6f4:	e7812103 	str	r2, [r1, r3, lsl #2]
    b6f8:	e51f3620 	ldr	r3, [pc, #-1568]	; b0e0 <main+0x3030>
    b6fc:	e5933000 	ldr	r3, [r3]
    b700:	e2833001 	add	r3, r3, #1
    b704:	e51f1630 	ldr	r1, [pc, #-1584]	; b0dc <main+0x302c>
    b708:	e59d235c 	ldr	r2, [sp, #860]	; 0x35c
    b70c:	e7812103 	str	r2, [r1, r3, lsl #2]
    b710:	e51f3638 	ldr	r3, [pc, #-1592]	; b0e0 <main+0x3030>
    b714:	e5933000 	ldr	r3, [r3]
    b718:	e2833002 	add	r3, r3, #2
    b71c:	e51f1648 	ldr	r1, [pc, #-1608]	; b0dc <main+0x302c>
    b720:	e59d2358 	ldr	r2, [sp, #856]	; 0x358
    b724:	e7812103 	str	r2, [r1, r3, lsl #2]
    b728:	e51f3650 	ldr	r3, [pc, #-1616]	; b0e0 <main+0x3030>
    b72c:	e5933000 	ldr	r3, [r3]
    b730:	e2833003 	add	r3, r3, #3
    b734:	e51f265c 	ldr	r2, [pc, #-1628]	; b0e0 <main+0x3030>
    b738:	e5823000 	str	r3, [r2]
    b73c:	e51f365c 	ldr	r3, [pc, #-1628]	; b0e8 <main+0x3038>
    b740:	e5933000 	ldr	r3, [r3]
    b744:	e3530004 	cmp	r3, #4
    b748:	da000039 	ble	b834 <main+0x3784>
    b74c:	e51f3674 	ldr	r3, [pc, #-1652]	; b0e0 <main+0x3030>
    b750:	e5933000 	ldr	r3, [r3]
    b754:	e2833003 	add	r3, r3, #3
    b758:	e3530006 	cmp	r3, #6
    b75c:	ca000034 	bgt	b834 <main+0x3784>
    b760:	e51f3684 	ldr	r3, [pc, #-1668]	; b0e4 <main+0x3034>
    b764:	e5932008 	ldr	r2, [r3, #8]
    b768:	e51f368c 	ldr	r3, [pc, #-1676]	; b0e4 <main+0x3034>
    b76c:	e5933010 	ldr	r3, [r3, #16]
    b770:	e1520003 	cmp	r2, r3
    b774:	1a00002e 	bne	b834 <main+0x3784>
    b778:	e51f369c 	ldr	r3, [pc, #-1692]	; b0e4 <main+0x3034>
    b77c:	e5932008 	ldr	r2, [r3, #8]
    b780:	e51f36a4 	ldr	r3, [pc, #-1700]	; b0e4 <main+0x3034>
    b784:	e593300c 	ldr	r3, [r3, #12]
    b788:	e1520003 	cmp	r2, r3
    b78c:	1a000028 	bne	b834 <main+0x3784>
    b790:	e51f36b4 	ldr	r3, [pc, #-1716]	; b0e4 <main+0x3034>
    b794:	e5933004 	ldr	r3, [r3, #4]
    b798:	e58d3354 	str	r3, [sp, #852]	; 0x354
    b79c:	e51f36c0 	ldr	r3, [pc, #-1728]	; b0e4 <main+0x3034>
    b7a0:	e5933008 	ldr	r3, [r3, #8]
    b7a4:	e58d3350 	str	r3, [sp, #848]	; 0x350
    b7a8:	e59d2350 	ldr	r2, [sp, #848]	; 0x350
    b7ac:	e59d3354 	ldr	r3, [sp, #852]	; 0x354
    b7b0:	e1520003 	cmp	r2, r3
    b7b4:	da00001e 	ble	b834 <main+0x3784>
    b7b8:	e51f36d8 	ldr	r3, [pc, #-1752]	; b0e8 <main+0x3038>
    b7bc:	e5933000 	ldr	r3, [r3]
    b7c0:	e2433004 	sub	r3, r3, #4
    b7c4:	e51f26e4 	ldr	r2, [pc, #-1764]	; b0e8 <main+0x3038>
    b7c8:	e5823000 	str	r3, [r2]
    b7cc:	e59d2354 	ldr	r2, [sp, #852]	; 0x354
    b7d0:	e59d3350 	ldr	r3, [sp, #848]	; 0x350
    b7d4:	e0823003 	add	r3, r2, r3
    b7d8:	e58d334c 	str	r3, [sp, #844]	; 0x34c
    b7dc:	e51f3704 	ldr	r3, [pc, #-1796]	; b0e0 <main+0x3030>
    b7e0:	e5933000 	ldr	r3, [r3]
    b7e4:	e51f1710 	ldr	r1, [pc, #-1808]	; b0dc <main+0x302c>
    b7e8:	e59d2354 	ldr	r2, [sp, #852]	; 0x354
    b7ec:	e7812103 	str	r2, [r1, r3, lsl #2]
    b7f0:	e51f3718 	ldr	r3, [pc, #-1816]	; b0e0 <main+0x3030>
    b7f4:	e5933000 	ldr	r3, [r3]
    b7f8:	e2833001 	add	r3, r3, #1
    b7fc:	e51f1728 	ldr	r1, [pc, #-1832]	; b0dc <main+0x302c>
    b800:	e59d2350 	ldr	r2, [sp, #848]	; 0x350
    b804:	e7812103 	str	r2, [r1, r3, lsl #2]
    b808:	e51f3730 	ldr	r3, [pc, #-1840]	; b0e0 <main+0x3030>
    b80c:	e5933000 	ldr	r3, [r3]
    b810:	e2833002 	add	r3, r3, #2
    b814:	e51f1740 	ldr	r1, [pc, #-1856]	; b0dc <main+0x302c>
    b818:	e59d234c 	ldr	r2, [sp, #844]	; 0x34c
    b81c:	e7812103 	str	r2, [r1, r3, lsl #2]
    b820:	e51f3748 	ldr	r3, [pc, #-1864]	; b0e0 <main+0x3030>
    b824:	e5933000 	ldr	r3, [r3]
    b828:	e2833003 	add	r3, r3, #3
    b82c:	e51f2754 	ldr	r2, [pc, #-1876]	; b0e0 <main+0x3030>
    b830:	e5823000 	str	r3, [r2]
    b834:	e51f3754 	ldr	r3, [pc, #-1876]	; b0e8 <main+0x3038>
    b838:	e5933000 	ldr	r3, [r3]
    b83c:	e3530004 	cmp	r3, #4
    b840:	da00003d 	ble	b93c <main+0x388c>
    b844:	e51f376c 	ldr	r3, [pc, #-1900]	; b0e0 <main+0x3030>
    b848:	e5933000 	ldr	r3, [r3]
    b84c:	e2833003 	add	r3, r3, #3
    b850:	e3530006 	cmp	r3, #6
    b854:	ca000038 	bgt	b93c <main+0x388c>
    b858:	e51f377c 	ldr	r3, [pc, #-1916]	; b0e4 <main+0x3034>
    b85c:	e593200c 	ldr	r2, [r3, #12]
    b860:	e51f3784 	ldr	r3, [pc, #-1924]	; b0e4 <main+0x3034>
    b864:	e5933000 	ldr	r3, [r3]
    b868:	e1520003 	cmp	r2, r3
    b86c:	1a000032 	bne	b93c <main+0x388c>
    b870:	e51f3794 	ldr	r3, [pc, #-1940]	; b0e4 <main+0x3034>
    b874:	e593200c 	ldr	r2, [r3, #12]
    b878:	e51f379c 	ldr	r3, [pc, #-1948]	; b0e4 <main+0x3034>
    b87c:	e5933010 	ldr	r3, [r3, #16]
    b880:	e1520003 	cmp	r2, r3
    b884:	1a00002c 	bne	b93c <main+0x388c>
    b888:	e51f37ac 	ldr	r3, [pc, #-1964]	; b0e4 <main+0x3034>
    b88c:	e5933004 	ldr	r3, [r3, #4]
    b890:	e58d3348 	str	r3, [sp, #840]	; 0x348
    b894:	e51f37b8 	ldr	r3, [pc, #-1976]	; b0e4 <main+0x3034>
    b898:	e593300c 	ldr	r3, [r3, #12]
    b89c:	e58d3344 	str	r3, [sp, #836]	; 0x344
    b8a0:	e59d2344 	ldr	r2, [sp, #836]	; 0x344
    b8a4:	e59d3348 	ldr	r3, [sp, #840]	; 0x348
    b8a8:	e1520003 	cmp	r2, r3
    b8ac:	da000022 	ble	b93c <main+0x388c>
    b8b0:	e51f37d4 	ldr	r3, [pc, #-2004]	; b0e4 <main+0x3034>
    b8b4:	e5933008 	ldr	r3, [r3, #8]
    b8b8:	e51f27dc 	ldr	r2, [pc, #-2012]	; b0e4 <main+0x3034>
    b8bc:	e5823000 	str	r3, [r2]
    b8c0:	e51f37e0 	ldr	r3, [pc, #-2016]	; b0e8 <main+0x3038>
    b8c4:	e5933000 	ldr	r3, [r3]
    b8c8:	e2433004 	sub	r3, r3, #4
    b8cc:	e51f27ec 	ldr	r2, [pc, #-2028]	; b0e8 <main+0x3038>
    b8d0:	e5823000 	str	r3, [r2]
    b8d4:	e59d2348 	ldr	r2, [sp, #840]	; 0x348
    b8d8:	e59d3344 	ldr	r3, [sp, #836]	; 0x344
    b8dc:	e0823003 	add	r3, r2, r3
    b8e0:	e58d3340 	str	r3, [sp, #832]	; 0x340
    b8e4:	e51f380c 	ldr	r3, [pc, #-2060]	; b0e0 <main+0x3030>
    b8e8:	e5933000 	ldr	r3, [r3]
    b8ec:	e51f1818 	ldr	r1, [pc, #-2072]	; b0dc <main+0x302c>
    b8f0:	e59d2348 	ldr	r2, [sp, #840]	; 0x348
    b8f4:	e7812103 	str	r2, [r1, r3, lsl #2]
    b8f8:	e51f3820 	ldr	r3, [pc, #-2080]	; b0e0 <main+0x3030>
    b8fc:	e5933000 	ldr	r3, [r3]
    b900:	e2833001 	add	r3, r3, #1
    b904:	e51f1830 	ldr	r1, [pc, #-2096]	; b0dc <main+0x302c>
    b908:	e59d2344 	ldr	r2, [sp, #836]	; 0x344
    b90c:	e7812103 	str	r2, [r1, r3, lsl #2]
    b910:	e51f3838 	ldr	r3, [pc, #-2104]	; b0e0 <main+0x3030>
    b914:	e5933000 	ldr	r3, [r3]
    b918:	e2833002 	add	r3, r3, #2
    b91c:	e51f1848 	ldr	r1, [pc, #-2120]	; b0dc <main+0x302c>
    b920:	e59d2340 	ldr	r2, [sp, #832]	; 0x340
    b924:	e7812103 	str	r2, [r1, r3, lsl #2]
    b928:	e51f3850 	ldr	r3, [pc, #-2128]	; b0e0 <main+0x3030>
    b92c:	e5933000 	ldr	r3, [r3]
    b930:	e2833003 	add	r3, r3, #3
    b934:	e51f285c 	ldr	r2, [pc, #-2140]	; b0e0 <main+0x3030>
    b938:	e5823000 	str	r3, [r2]
    b93c:	e51f385c 	ldr	r3, [pc, #-2140]	; b0e8 <main+0x3038>
    b940:	e5933000 	ldr	r3, [r3]
    b944:	e3530004 	cmp	r3, #4
    b948:	da000039 	ble	ba34 <main+0x3984>
    b94c:	e51f3874 	ldr	r3, [pc, #-2164]	; b0e0 <main+0x3030>
    b950:	e5933000 	ldr	r3, [r3]
    b954:	e2833003 	add	r3, r3, #3
    b958:	e3530006 	cmp	r3, #6
    b95c:	ca000034 	bgt	ba34 <main+0x3984>
    b960:	e51f3884 	ldr	r3, [pc, #-2180]	; b0e4 <main+0x3034>
    b964:	e593200c 	ldr	r2, [r3, #12]
    b968:	e51f388c 	ldr	r3, [pc, #-2188]	; b0e4 <main+0x3034>
    b96c:	e5933008 	ldr	r3, [r3, #8]
    b970:	e1520003 	cmp	r2, r3
    b974:	1a00002e 	bne	ba34 <main+0x3984>
    b978:	e51f389c 	ldr	r3, [pc, #-2204]	; b0e4 <main+0x3034>
    b97c:	e593200c 	ldr	r2, [r3, #12]
    b980:	e51f38a4 	ldr	r3, [pc, #-2212]	; b0e4 <main+0x3034>
    b984:	e5933010 	ldr	r3, [r3, #16]
    b988:	e1520003 	cmp	r2, r3
    b98c:	1a000028 	bne	ba34 <main+0x3984>
    b990:	e51f38b4 	ldr	r3, [pc, #-2228]	; b0e4 <main+0x3034>
    b994:	e5933004 	ldr	r3, [r3, #4]
    b998:	e58d333c 	str	r3, [sp, #828]	; 0x33c
    b99c:	e51f38c0 	ldr	r3, [pc, #-2240]	; b0e4 <main+0x3034>
    b9a0:	e593300c 	ldr	r3, [r3, #12]
    b9a4:	e58d3338 	str	r3, [sp, #824]	; 0x338
    b9a8:	e59d2338 	ldr	r2, [sp, #824]	; 0x338
    b9ac:	e59d333c 	ldr	r3, [sp, #828]	; 0x33c
    b9b0:	e1520003 	cmp	r2, r3
    b9b4:	da00001e 	ble	ba34 <main+0x3984>
    b9b8:	e51f38d8 	ldr	r3, [pc, #-2264]	; b0e8 <main+0x3038>
    b9bc:	e5933000 	ldr	r3, [r3]
    b9c0:	e2433004 	sub	r3, r3, #4
    b9c4:	e51f28e4 	ldr	r2, [pc, #-2276]	; b0e8 <main+0x3038>
    b9c8:	e5823000 	str	r3, [r2]
    b9cc:	e59d233c 	ldr	r2, [sp, #828]	; 0x33c
    b9d0:	e59d3338 	ldr	r3, [sp, #824]	; 0x338
    b9d4:	e0823003 	add	r3, r2, r3
    b9d8:	e58d3334 	str	r3, [sp, #820]	; 0x334
    b9dc:	e51f3904 	ldr	r3, [pc, #-2308]	; b0e0 <main+0x3030>
    b9e0:	e5933000 	ldr	r3, [r3]
    b9e4:	e51f1910 	ldr	r1, [pc, #-2320]	; b0dc <main+0x302c>
    b9e8:	e59d233c 	ldr	r2, [sp, #828]	; 0x33c
    b9ec:	e7812103 	str	r2, [r1, r3, lsl #2]
    b9f0:	e51f3918 	ldr	r3, [pc, #-2328]	; b0e0 <main+0x3030>
    b9f4:	e5933000 	ldr	r3, [r3]
    b9f8:	e2833001 	add	r3, r3, #1
    b9fc:	e51f1928 	ldr	r1, [pc, #-2344]	; b0dc <main+0x302c>
    ba00:	e59d2338 	ldr	r2, [sp, #824]	; 0x338
    ba04:	e7812103 	str	r2, [r1, r3, lsl #2]
    ba08:	e51f3930 	ldr	r3, [pc, #-2352]	; b0e0 <main+0x3030>
    ba0c:	e5933000 	ldr	r3, [r3]
    ba10:	e2833002 	add	r3, r3, #2
    ba14:	e51f1940 	ldr	r1, [pc, #-2368]	; b0dc <main+0x302c>
    ba18:	e59d2334 	ldr	r2, [sp, #820]	; 0x334
    ba1c:	e7812103 	str	r2, [r1, r3, lsl #2]
    ba20:	e51f3948 	ldr	r3, [pc, #-2376]	; b0e0 <main+0x3030>
    ba24:	e5933000 	ldr	r3, [r3]
    ba28:	e2833003 	add	r3, r3, #3
    ba2c:	e51f2954 	ldr	r2, [pc, #-2388]	; b0e0 <main+0x3030>
    ba30:	e5823000 	str	r3, [r2]
    ba34:	e51f3954 	ldr	r3, [pc, #-2388]	; b0e8 <main+0x3038>
    ba38:	e5933000 	ldr	r3, [r3]
    ba3c:	e3530004 	cmp	r3, #4
    ba40:	da00003d 	ble	bb3c <main+0x3a8c>
    ba44:	e51f396c 	ldr	r3, [pc, #-2412]	; b0e0 <main+0x3030>
    ba48:	e5933000 	ldr	r3, [r3]
    ba4c:	e2833003 	add	r3, r3, #3
    ba50:	e3530006 	cmp	r3, #6
    ba54:	ca000038 	bgt	bb3c <main+0x3a8c>
    ba58:	e51f397c 	ldr	r3, [pc, #-2428]	; b0e4 <main+0x3034>
    ba5c:	e593200c 	ldr	r2, [r3, #12]
    ba60:	e51f3984 	ldr	r3, [pc, #-2436]	; b0e4 <main+0x3034>
    ba64:	e5933010 	ldr	r3, [r3, #16]
    ba68:	e1520003 	cmp	r2, r3
    ba6c:	1a000032 	bne	bb3c <main+0x3a8c>
    ba70:	e51f3994 	ldr	r3, [pc, #-2452]	; b0e4 <main+0x3034>
    ba74:	e593200c 	ldr	r2, [r3, #12]
    ba78:	e51f399c 	ldr	r3, [pc, #-2460]	; b0e4 <main+0x3034>
    ba7c:	e5933000 	ldr	r3, [r3]
    ba80:	e1520003 	cmp	r2, r3
    ba84:	1a00002c 	bne	bb3c <main+0x3a8c>
    ba88:	e51f39ac 	ldr	r3, [pc, #-2476]	; b0e4 <main+0x3034>
    ba8c:	e5933004 	ldr	r3, [r3, #4]
    ba90:	e58d3330 	str	r3, [sp, #816]	; 0x330
    ba94:	e51f39b8 	ldr	r3, [pc, #-2488]	; b0e4 <main+0x3034>
    ba98:	e593300c 	ldr	r3, [r3, #12]
    ba9c:	e58d332c 	str	r3, [sp, #812]	; 0x32c
    baa0:	e59d232c 	ldr	r2, [sp, #812]	; 0x32c
    baa4:	e59d3330 	ldr	r3, [sp, #816]	; 0x330
    baa8:	e1520003 	cmp	r2, r3
    baac:	da000022 	ble	bb3c <main+0x3a8c>
    bab0:	e51f39d4 	ldr	r3, [pc, #-2516]	; b0e4 <main+0x3034>
    bab4:	e5933008 	ldr	r3, [r3, #8]
    bab8:	e51f29dc 	ldr	r2, [pc, #-2524]	; b0e4 <main+0x3034>
    babc:	e5823000 	str	r3, [r2]
    bac0:	e51f39e0 	ldr	r3, [pc, #-2528]	; b0e8 <main+0x3038>
    bac4:	e5933000 	ldr	r3, [r3]
    bac8:	e2433004 	sub	r3, r3, #4
    bacc:	e51f29ec 	ldr	r2, [pc, #-2540]	; b0e8 <main+0x3038>
    bad0:	e5823000 	str	r3, [r2]
    bad4:	e59d2330 	ldr	r2, [sp, #816]	; 0x330
    bad8:	e59d332c 	ldr	r3, [sp, #812]	; 0x32c
    badc:	e0823003 	add	r3, r2, r3
    bae0:	e58d3328 	str	r3, [sp, #808]	; 0x328
    bae4:	e51f3a0c 	ldr	r3, [pc, #-2572]	; b0e0 <main+0x3030>
    bae8:	e5933000 	ldr	r3, [r3]
    baec:	e51f1a18 	ldr	r1, [pc, #-2584]	; b0dc <main+0x302c>
    baf0:	e59d2330 	ldr	r2, [sp, #816]	; 0x330
    baf4:	e7812103 	str	r2, [r1, r3, lsl #2]
    baf8:	e51f3a20 	ldr	r3, [pc, #-2592]	; b0e0 <main+0x3030>
    bafc:	e5933000 	ldr	r3, [r3]
    bb00:	e2833001 	add	r3, r3, #1
    bb04:	e51f1a30 	ldr	r1, [pc, #-2608]	; b0dc <main+0x302c>
    bb08:	e59d232c 	ldr	r2, [sp, #812]	; 0x32c
    bb0c:	e7812103 	str	r2, [r1, r3, lsl #2]
    bb10:	e51f3a38 	ldr	r3, [pc, #-2616]	; b0e0 <main+0x3030>
    bb14:	e5933000 	ldr	r3, [r3]
    bb18:	e2833002 	add	r3, r3, #2
    bb1c:	e51f1a48 	ldr	r1, [pc, #-2632]	; b0dc <main+0x302c>
    bb20:	e59d2328 	ldr	r2, [sp, #808]	; 0x328
    bb24:	e7812103 	str	r2, [r1, r3, lsl #2]
    bb28:	e51f3a50 	ldr	r3, [pc, #-2640]	; b0e0 <main+0x3030>
    bb2c:	e5933000 	ldr	r3, [r3]
    bb30:	e2833003 	add	r3, r3, #3
    bb34:	e51f2a5c 	ldr	r2, [pc, #-2652]	; b0e0 <main+0x3030>
    bb38:	e5823000 	str	r3, [r2]
    bb3c:	e51f3a5c 	ldr	r3, [pc, #-2652]	; b0e8 <main+0x3038>
    bb40:	e5933000 	ldr	r3, [r3]
    bb44:	e3530004 	cmp	r3, #4
    bb48:	da000039 	ble	bc34 <main+0x3b84>
    bb4c:	e51f3a74 	ldr	r3, [pc, #-2676]	; b0e0 <main+0x3030>
    bb50:	e5933000 	ldr	r3, [r3]
    bb54:	e2833003 	add	r3, r3, #3
    bb58:	e3530006 	cmp	r3, #6
    bb5c:	ca000034 	bgt	bc34 <main+0x3b84>
    bb60:	e51f3a84 	ldr	r3, [pc, #-2692]	; b0e4 <main+0x3034>
    bb64:	e593200c 	ldr	r2, [r3, #12]
    bb68:	e51f3a8c 	ldr	r3, [pc, #-2700]	; b0e4 <main+0x3034>
    bb6c:	e5933010 	ldr	r3, [r3, #16]
    bb70:	e1520003 	cmp	r2, r3
    bb74:	1a00002e 	bne	bc34 <main+0x3b84>
    bb78:	e51f3a9c 	ldr	r3, [pc, #-2716]	; b0e4 <main+0x3034>
    bb7c:	e593200c 	ldr	r2, [r3, #12]
    bb80:	e51f3aa4 	ldr	r3, [pc, #-2724]	; b0e4 <main+0x3034>
    bb84:	e5933008 	ldr	r3, [r3, #8]
    bb88:	e1520003 	cmp	r2, r3
    bb8c:	1a000028 	bne	bc34 <main+0x3b84>
    bb90:	e51f3ab4 	ldr	r3, [pc, #-2740]	; b0e4 <main+0x3034>
    bb94:	e5933004 	ldr	r3, [r3, #4]
    bb98:	e58d3324 	str	r3, [sp, #804]	; 0x324
    bb9c:	e51f3ac0 	ldr	r3, [pc, #-2752]	; b0e4 <main+0x3034>
    bba0:	e593300c 	ldr	r3, [r3, #12]
    bba4:	e58d3320 	str	r3, [sp, #800]	; 0x320
    bba8:	e59d2320 	ldr	r2, [sp, #800]	; 0x320
    bbac:	e59d3324 	ldr	r3, [sp, #804]	; 0x324
    bbb0:	e1520003 	cmp	r2, r3
    bbb4:	da00001e 	ble	bc34 <main+0x3b84>
    bbb8:	e51f3ad8 	ldr	r3, [pc, #-2776]	; b0e8 <main+0x3038>
    bbbc:	e5933000 	ldr	r3, [r3]
    bbc0:	e2433004 	sub	r3, r3, #4
    bbc4:	e51f2ae4 	ldr	r2, [pc, #-2788]	; b0e8 <main+0x3038>
    bbc8:	e5823000 	str	r3, [r2]
    bbcc:	e59d2324 	ldr	r2, [sp, #804]	; 0x324
    bbd0:	e59d3320 	ldr	r3, [sp, #800]	; 0x320
    bbd4:	e0823003 	add	r3, r2, r3
    bbd8:	e58d331c 	str	r3, [sp, #796]	; 0x31c
    bbdc:	e51f3b04 	ldr	r3, [pc, #-2820]	; b0e0 <main+0x3030>
    bbe0:	e5933000 	ldr	r3, [r3]
    bbe4:	e51f1b10 	ldr	r1, [pc, #-2832]	; b0dc <main+0x302c>
    bbe8:	e59d2324 	ldr	r2, [sp, #804]	; 0x324
    bbec:	e7812103 	str	r2, [r1, r3, lsl #2]
    bbf0:	e51f3b18 	ldr	r3, [pc, #-2840]	; b0e0 <main+0x3030>
    bbf4:	e5933000 	ldr	r3, [r3]
    bbf8:	e2833001 	add	r3, r3, #1
    bbfc:	e51f1b28 	ldr	r1, [pc, #-2856]	; b0dc <main+0x302c>
    bc00:	e59d2320 	ldr	r2, [sp, #800]	; 0x320
    bc04:	e7812103 	str	r2, [r1, r3, lsl #2]
    bc08:	e51f3b30 	ldr	r3, [pc, #-2864]	; b0e0 <main+0x3030>
    bc0c:	e5933000 	ldr	r3, [r3]
    bc10:	e2833002 	add	r3, r3, #2
    bc14:	e51f1b40 	ldr	r1, [pc, #-2880]	; b0dc <main+0x302c>
    bc18:	e59d231c 	ldr	r2, [sp, #796]	; 0x31c
    bc1c:	e7812103 	str	r2, [r1, r3, lsl #2]
    bc20:	e51f3b48 	ldr	r3, [pc, #-2888]	; b0e0 <main+0x3030>
    bc24:	e5933000 	ldr	r3, [r3]
    bc28:	e2833003 	add	r3, r3, #3
    bc2c:	e51f2b54 	ldr	r2, [pc, #-2900]	; b0e0 <main+0x3030>
    bc30:	e5823000 	str	r3, [r2]
    bc34:	e51f3b54 	ldr	r3, [pc, #-2900]	; b0e8 <main+0x3038>
    bc38:	e5933000 	ldr	r3, [r3]
    bc3c:	e3530004 	cmp	r3, #4
    bc40:	da00003d 	ble	bd3c <main+0x3c8c>
    bc44:	e51f3b6c 	ldr	r3, [pc, #-2924]	; b0e0 <main+0x3030>
    bc48:	e5933000 	ldr	r3, [r3]
    bc4c:	e2833003 	add	r3, r3, #3
    bc50:	e3530006 	cmp	r3, #6
    bc54:	ca000038 	bgt	bd3c <main+0x3c8c>
    bc58:	e51f3b7c 	ldr	r3, [pc, #-2940]	; b0e4 <main+0x3034>
    bc5c:	e5932010 	ldr	r2, [r3, #16]
    bc60:	e51f3b84 	ldr	r3, [pc, #-2948]	; b0e4 <main+0x3034>
    bc64:	e5933000 	ldr	r3, [r3]
    bc68:	e1520003 	cmp	r2, r3
    bc6c:	1a000032 	bne	bd3c <main+0x3c8c>
    bc70:	e51f3b94 	ldr	r3, [pc, #-2964]	; b0e4 <main+0x3034>
    bc74:	e5932010 	ldr	r2, [r3, #16]
    bc78:	e51f3b9c 	ldr	r3, [pc, #-2972]	; b0e4 <main+0x3034>
    bc7c:	e5933008 	ldr	r3, [r3, #8]
    bc80:	e1520003 	cmp	r2, r3
    bc84:	1a00002c 	bne	bd3c <main+0x3c8c>
    bc88:	e51f3bac 	ldr	r3, [pc, #-2988]	; b0e4 <main+0x3034>
    bc8c:	e5933004 	ldr	r3, [r3, #4]
    bc90:	e58d3318 	str	r3, [sp, #792]	; 0x318
    bc94:	e51f3bb8 	ldr	r3, [pc, #-3000]	; b0e4 <main+0x3034>
    bc98:	e5933010 	ldr	r3, [r3, #16]
    bc9c:	e58d3314 	str	r3, [sp, #788]	; 0x314
    bca0:	e59d2314 	ldr	r2, [sp, #788]	; 0x314
    bca4:	e59d3318 	ldr	r3, [sp, #792]	; 0x318
    bca8:	e1520003 	cmp	r2, r3
    bcac:	da000022 	ble	bd3c <main+0x3c8c>
    bcb0:	e51f3bd4 	ldr	r3, [pc, #-3028]	; b0e4 <main+0x3034>
    bcb4:	e593300c 	ldr	r3, [r3, #12]
    bcb8:	e51f2bdc 	ldr	r2, [pc, #-3036]	; b0e4 <main+0x3034>
    bcbc:	e5823000 	str	r3, [r2]
    bcc0:	e51f3be0 	ldr	r3, [pc, #-3040]	; b0e8 <main+0x3038>
    bcc4:	e5933000 	ldr	r3, [r3]
    bcc8:	e2433004 	sub	r3, r3, #4
    bccc:	e51f2bec 	ldr	r2, [pc, #-3052]	; b0e8 <main+0x3038>
    bcd0:	e5823000 	str	r3, [r2]
    bcd4:	e59d2318 	ldr	r2, [sp, #792]	; 0x318
    bcd8:	e59d3314 	ldr	r3, [sp, #788]	; 0x314
    bcdc:	e0823003 	add	r3, r2, r3
    bce0:	e58d3310 	str	r3, [sp, #784]	; 0x310
    bce4:	e51f3c0c 	ldr	r3, [pc, #-3084]	; b0e0 <main+0x3030>
    bce8:	e5933000 	ldr	r3, [r3]
    bcec:	e51f1c18 	ldr	r1, [pc, #-3096]	; b0dc <main+0x302c>
    bcf0:	e59d2318 	ldr	r2, [sp, #792]	; 0x318
    bcf4:	e7812103 	str	r2, [r1, r3, lsl #2]
    bcf8:	e51f3c20 	ldr	r3, [pc, #-3104]	; b0e0 <main+0x3030>
    bcfc:	e5933000 	ldr	r3, [r3]
    bd00:	e2833001 	add	r3, r3, #1
    bd04:	e51f1c30 	ldr	r1, [pc, #-3120]	; b0dc <main+0x302c>
    bd08:	e59d2314 	ldr	r2, [sp, #788]	; 0x314
    bd0c:	e7812103 	str	r2, [r1, r3, lsl #2]
    bd10:	e51f3c38 	ldr	r3, [pc, #-3128]	; b0e0 <main+0x3030>
    bd14:	e5933000 	ldr	r3, [r3]
    bd18:	e2833002 	add	r3, r3, #2
    bd1c:	e51f1c48 	ldr	r1, [pc, #-3144]	; b0dc <main+0x302c>
    bd20:	e59d2310 	ldr	r2, [sp, #784]	; 0x310
    bd24:	e7812103 	str	r2, [r1, r3, lsl #2]
    bd28:	e51f3c50 	ldr	r3, [pc, #-3152]	; b0e0 <main+0x3030>
    bd2c:	e5933000 	ldr	r3, [r3]
    bd30:	e2833003 	add	r3, r3, #3
    bd34:	e51f2c5c 	ldr	r2, [pc, #-3164]	; b0e0 <main+0x3030>
    bd38:	e5823000 	str	r3, [r2]
    bd3c:	e51f3c5c 	ldr	r3, [pc, #-3164]	; b0e8 <main+0x3038>
    bd40:	e5933000 	ldr	r3, [r3]
    bd44:	e3530004 	cmp	r3, #4
    bd48:	da00003d 	ble	be44 <main+0x3d94>
    bd4c:	e51f3c74 	ldr	r3, [pc, #-3188]	; b0e0 <main+0x3030>
    bd50:	e5933000 	ldr	r3, [r3]
    bd54:	e2833003 	add	r3, r3, #3
    bd58:	e3530006 	cmp	r3, #6
    bd5c:	ca000038 	bgt	be44 <main+0x3d94>
    bd60:	e51f3c84 	ldr	r3, [pc, #-3204]	; b0e4 <main+0x3034>
    bd64:	e5932010 	ldr	r2, [r3, #16]
    bd68:	e51f3c8c 	ldr	r3, [pc, #-3212]	; b0e4 <main+0x3034>
    bd6c:	e5933000 	ldr	r3, [r3]
    bd70:	e1520003 	cmp	r2, r3
    bd74:	1a000032 	bne	be44 <main+0x3d94>
    bd78:	e51f3c9c 	ldr	r3, [pc, #-3228]	; b0e4 <main+0x3034>
    bd7c:	e5932010 	ldr	r2, [r3, #16]
    bd80:	e51f3ca4 	ldr	r3, [pc, #-3236]	; b0e4 <main+0x3034>
    bd84:	e593300c 	ldr	r3, [r3, #12]
    bd88:	e1520003 	cmp	r2, r3
    bd8c:	1a00002c 	bne	be44 <main+0x3d94>
    bd90:	e51f3cb4 	ldr	r3, [pc, #-3252]	; b0e4 <main+0x3034>
    bd94:	e5933004 	ldr	r3, [r3, #4]
    bd98:	e58d330c 	str	r3, [sp, #780]	; 0x30c
    bd9c:	e51f3cc0 	ldr	r3, [pc, #-3264]	; b0e4 <main+0x3034>
    bda0:	e5933010 	ldr	r3, [r3, #16]
    bda4:	e58d3308 	str	r3, [sp, #776]	; 0x308
    bda8:	e59d2308 	ldr	r2, [sp, #776]	; 0x308
    bdac:	e59d330c 	ldr	r3, [sp, #780]	; 0x30c
    bdb0:	e1520003 	cmp	r2, r3
    bdb4:	da000022 	ble	be44 <main+0x3d94>
    bdb8:	e51f3cdc 	ldr	r3, [pc, #-3292]	; b0e4 <main+0x3034>
    bdbc:	e5933008 	ldr	r3, [r3, #8]
    bdc0:	e51f2ce4 	ldr	r2, [pc, #-3300]	; b0e4 <main+0x3034>
    bdc4:	e5823000 	str	r3, [r2]
    bdc8:	e51f3ce8 	ldr	r3, [pc, #-3304]	; b0e8 <main+0x3038>
    bdcc:	e5933000 	ldr	r3, [r3]
    bdd0:	e2433004 	sub	r3, r3, #4
    bdd4:	e51f2cf4 	ldr	r2, [pc, #-3316]	; b0e8 <main+0x3038>
    bdd8:	e5823000 	str	r3, [r2]
    bddc:	e59d230c 	ldr	r2, [sp, #780]	; 0x30c
    bde0:	e59d3308 	ldr	r3, [sp, #776]	; 0x308
    bde4:	e0823003 	add	r3, r2, r3
    bde8:	e58d3304 	str	r3, [sp, #772]	; 0x304
    bdec:	e51f3d14 	ldr	r3, [pc, #-3348]	; b0e0 <main+0x3030>
    bdf0:	e5933000 	ldr	r3, [r3]
    bdf4:	e51f1d20 	ldr	r1, [pc, #-3360]	; b0dc <main+0x302c>
    bdf8:	e59d230c 	ldr	r2, [sp, #780]	; 0x30c
    bdfc:	e7812103 	str	r2, [r1, r3, lsl #2]
    be00:	e51f3d28 	ldr	r3, [pc, #-3368]	; b0e0 <main+0x3030>
    be04:	e5933000 	ldr	r3, [r3]
    be08:	e2833001 	add	r3, r3, #1
    be0c:	e51f1d38 	ldr	r1, [pc, #-3384]	; b0dc <main+0x302c>
    be10:	e59d2308 	ldr	r2, [sp, #776]	; 0x308
    be14:	e7812103 	str	r2, [r1, r3, lsl #2]
    be18:	e51f3d40 	ldr	r3, [pc, #-3392]	; b0e0 <main+0x3030>
    be1c:	e5933000 	ldr	r3, [r3]
    be20:	e2833002 	add	r3, r3, #2
    be24:	e51f1d50 	ldr	r1, [pc, #-3408]	; b0dc <main+0x302c>
    be28:	e59d2304 	ldr	r2, [sp, #772]	; 0x304
    be2c:	e7812103 	str	r2, [r1, r3, lsl #2]
    be30:	e51f3d58 	ldr	r3, [pc, #-3416]	; b0e0 <main+0x3030>
    be34:	e5933000 	ldr	r3, [r3]
    be38:	e2833003 	add	r3, r3, #3
    be3c:	e51f2d64 	ldr	r2, [pc, #-3428]	; b0e0 <main+0x3030>
    be40:	e5823000 	str	r3, [r2]
    be44:	e51f3d64 	ldr	r3, [pc, #-3428]	; b0e8 <main+0x3038>
    be48:	e5933000 	ldr	r3, [r3]
    be4c:	e3530004 	cmp	r3, #4
    be50:	da00003d 	ble	bf4c <main+0x3e9c>
    be54:	e51f3d7c 	ldr	r3, [pc, #-3452]	; b0e0 <main+0x3030>
    be58:	e5933000 	ldr	r3, [r3]
    be5c:	e2833003 	add	r3, r3, #3
    be60:	e3530006 	cmp	r3, #6
    be64:	ca000038 	bgt	bf4c <main+0x3e9c>
    be68:	e51f3d8c 	ldr	r3, [pc, #-3468]	; b0e4 <main+0x3034>
    be6c:	e5932010 	ldr	r2, [r3, #16]
    be70:	e51f3d94 	ldr	r3, [pc, #-3476]	; b0e4 <main+0x3034>
    be74:	e5933008 	ldr	r3, [r3, #8]
    be78:	e1520003 	cmp	r2, r3
    be7c:	1a000032 	bne	bf4c <main+0x3e9c>
    be80:	e51f3da4 	ldr	r3, [pc, #-3492]	; b0e4 <main+0x3034>
    be84:	e5932010 	ldr	r2, [r3, #16]
    be88:	e51f3dac 	ldr	r3, [pc, #-3500]	; b0e4 <main+0x3034>
    be8c:	e5933000 	ldr	r3, [r3]
    be90:	e1520003 	cmp	r2, r3
    be94:	1a00002c 	bne	bf4c <main+0x3e9c>
    be98:	e51f3dbc 	ldr	r3, [pc, #-3516]	; b0e4 <main+0x3034>
    be9c:	e5933004 	ldr	r3, [r3, #4]
    bea0:	e58d3300 	str	r3, [sp, #768]	; 0x300
    bea4:	e51f3dc8 	ldr	r3, [pc, #-3528]	; b0e4 <main+0x3034>
    bea8:	e5933010 	ldr	r3, [r3, #16]
    beac:	e58d32fc 	str	r3, [sp, #764]	; 0x2fc
    beb0:	e59d22fc 	ldr	r2, [sp, #764]	; 0x2fc
    beb4:	e59d3300 	ldr	r3, [sp, #768]	; 0x300
    beb8:	e1520003 	cmp	r2, r3
    bebc:	da000022 	ble	bf4c <main+0x3e9c>
    bec0:	e51f3de4 	ldr	r3, [pc, #-3556]	; b0e4 <main+0x3034>
    bec4:	e593300c 	ldr	r3, [r3, #12]
    bec8:	e51f2dec 	ldr	r2, [pc, #-3564]	; b0e4 <main+0x3034>
    becc:	e5823000 	str	r3, [r2]
    bed0:	e51f3df0 	ldr	r3, [pc, #-3568]	; b0e8 <main+0x3038>
    bed4:	e5933000 	ldr	r3, [r3]
    bed8:	e2433004 	sub	r3, r3, #4
    bedc:	e51f2dfc 	ldr	r2, [pc, #-3580]	; b0e8 <main+0x3038>
    bee0:	e5823000 	str	r3, [r2]
    bee4:	e59d2300 	ldr	r2, [sp, #768]	; 0x300
    bee8:	e59d32fc 	ldr	r3, [sp, #764]	; 0x2fc
    beec:	e0823003 	add	r3, r2, r3
    bef0:	e58d32f8 	str	r3, [sp, #760]	; 0x2f8
    bef4:	e51f3e1c 	ldr	r3, [pc, #-3612]	; b0e0 <main+0x3030>
    bef8:	e5933000 	ldr	r3, [r3]
    befc:	e51f1e28 	ldr	r1, [pc, #-3624]	; b0dc <main+0x302c>
    bf00:	e59d2300 	ldr	r2, [sp, #768]	; 0x300
    bf04:	e7812103 	str	r2, [r1, r3, lsl #2]
    bf08:	e51f3e30 	ldr	r3, [pc, #-3632]	; b0e0 <main+0x3030>
    bf0c:	e5933000 	ldr	r3, [r3]
    bf10:	e2833001 	add	r3, r3, #1
    bf14:	e51f1e40 	ldr	r1, [pc, #-3648]	; b0dc <main+0x302c>
    bf18:	e59d22fc 	ldr	r2, [sp, #764]	; 0x2fc
    bf1c:	e7812103 	str	r2, [r1, r3, lsl #2]
    bf20:	e51f3e48 	ldr	r3, [pc, #-3656]	; b0e0 <main+0x3030>
    bf24:	e5933000 	ldr	r3, [r3]
    bf28:	e2833002 	add	r3, r3, #2
    bf2c:	e51f1e58 	ldr	r1, [pc, #-3672]	; b0dc <main+0x302c>
    bf30:	e59d22f8 	ldr	r2, [sp, #760]	; 0x2f8
    bf34:	e7812103 	str	r2, [r1, r3, lsl #2]
    bf38:	e51f3e60 	ldr	r3, [pc, #-3680]	; b0e0 <main+0x3030>
    bf3c:	e5933000 	ldr	r3, [r3]
    bf40:	e2833003 	add	r3, r3, #3
    bf44:	e51f2e6c 	ldr	r2, [pc, #-3692]	; b0e0 <main+0x3030>
    bf48:	e5823000 	str	r3, [r2]
    bf4c:	e51f3e6c 	ldr	r3, [pc, #-3692]	; b0e8 <main+0x3038>
    bf50:	e5933000 	ldr	r3, [r3]
    bf54:	e3530004 	cmp	r3, #4
    bf58:	da000039 	ble	c044 <main+0x3f94>
    bf5c:	e51f3e84 	ldr	r3, [pc, #-3716]	; b0e0 <main+0x3030>
    bf60:	e5933000 	ldr	r3, [r3]
    bf64:	e2833003 	add	r3, r3, #3
    bf68:	e3530006 	cmp	r3, #6
    bf6c:	ca000034 	bgt	c044 <main+0x3f94>
    bf70:	e51f3e94 	ldr	r3, [pc, #-3732]	; b0e4 <main+0x3034>
    bf74:	e5932010 	ldr	r2, [r3, #16]
    bf78:	e51f3e9c 	ldr	r3, [pc, #-3740]	; b0e4 <main+0x3034>
    bf7c:	e5933008 	ldr	r3, [r3, #8]
    bf80:	e1520003 	cmp	r2, r3
    bf84:	1a00002e 	bne	c044 <main+0x3f94>
    bf88:	e51f3eac 	ldr	r3, [pc, #-3756]	; b0e4 <main+0x3034>
    bf8c:	e5932010 	ldr	r2, [r3, #16]
    bf90:	e51f3eb4 	ldr	r3, [pc, #-3764]	; b0e4 <main+0x3034>
    bf94:	e593300c 	ldr	r3, [r3, #12]
    bf98:	e1520003 	cmp	r2, r3
    bf9c:	1a000028 	bne	c044 <main+0x3f94>
    bfa0:	e51f3ec4 	ldr	r3, [pc, #-3780]	; b0e4 <main+0x3034>
    bfa4:	e5933004 	ldr	r3, [r3, #4]
    bfa8:	e58d32f4 	str	r3, [sp, #756]	; 0x2f4
    bfac:	e51f3ed0 	ldr	r3, [pc, #-3792]	; b0e4 <main+0x3034>
    bfb0:	e5933010 	ldr	r3, [r3, #16]
    bfb4:	e58d32f0 	str	r3, [sp, #752]	; 0x2f0
    bfb8:	e59d22f0 	ldr	r2, [sp, #752]	; 0x2f0
    bfbc:	e59d32f4 	ldr	r3, [sp, #756]	; 0x2f4
    bfc0:	e1520003 	cmp	r2, r3
    bfc4:	da00001e 	ble	c044 <main+0x3f94>
    bfc8:	e51f3ee8 	ldr	r3, [pc, #-3816]	; b0e8 <main+0x3038>
    bfcc:	e5933000 	ldr	r3, [r3]
    bfd0:	e2433004 	sub	r3, r3, #4
    bfd4:	e51f2ef4 	ldr	r2, [pc, #-3828]	; b0e8 <main+0x3038>
    bfd8:	e5823000 	str	r3, [r2]
    bfdc:	e59d22f4 	ldr	r2, [sp, #756]	; 0x2f4
    bfe0:	e59d32f0 	ldr	r3, [sp, #752]	; 0x2f0
    bfe4:	e0823003 	add	r3, r2, r3
    bfe8:	e58d32ec 	str	r3, [sp, #748]	; 0x2ec
    bfec:	e51f3f14 	ldr	r3, [pc, #-3860]	; b0e0 <main+0x3030>
    bff0:	e5933000 	ldr	r3, [r3]
    bff4:	e51f1f20 	ldr	r1, [pc, #-3872]	; b0dc <main+0x302c>
    bff8:	e59d22f4 	ldr	r2, [sp, #756]	; 0x2f4
    bffc:	e7812103 	str	r2, [r1, r3, lsl #2]
    c000:	e51f3f28 	ldr	r3, [pc, #-3880]	; b0e0 <main+0x3030>
    c004:	e5933000 	ldr	r3, [r3]
    c008:	e2833001 	add	r3, r3, #1
    c00c:	e51f1f38 	ldr	r1, [pc, #-3896]	; b0dc <main+0x302c>
    c010:	e59d22f0 	ldr	r2, [sp, #752]	; 0x2f0
    c014:	e7812103 	str	r2, [r1, r3, lsl #2]
    c018:	e51f3f40 	ldr	r3, [pc, #-3904]	; b0e0 <main+0x3030>
    c01c:	e5933000 	ldr	r3, [r3]
    c020:	e2833002 	add	r3, r3, #2
    c024:	e51f1f50 	ldr	r1, [pc, #-3920]	; b0dc <main+0x302c>
    c028:	e59d22ec 	ldr	r2, [sp, #748]	; 0x2ec
    c02c:	e7812103 	str	r2, [r1, r3, lsl #2]
    c030:	e51f3f58 	ldr	r3, [pc, #-3928]	; b0e0 <main+0x3030>
    c034:	e5933000 	ldr	r3, [r3]
    c038:	e2833003 	add	r3, r3, #3
    c03c:	e51f2f64 	ldr	r2, [pc, #-3940]	; b0e0 <main+0x3030>
    c040:	e5823000 	str	r3, [r2]
    c044:	e51f3f64 	ldr	r3, [pc, #-3940]	; b0e8 <main+0x3038>
    c048:	e5933000 	ldr	r3, [r3]
    c04c:	e3530004 	cmp	r3, #4
    c050:	da00003d 	ble	c14c <main+0x409c>
    c054:	e51f3f7c 	ldr	r3, [pc, #-3964]	; b0e0 <main+0x3030>
    c058:	e5933000 	ldr	r3, [r3]
    c05c:	e2833003 	add	r3, r3, #3
    c060:	e3530006 	cmp	r3, #6
    c064:	ca000038 	bgt	c14c <main+0x409c>
    c068:	e51f3f8c 	ldr	r3, [pc, #-3980]	; b0e4 <main+0x3034>
    c06c:	e5932010 	ldr	r2, [r3, #16]
    c070:	e51f3f94 	ldr	r3, [pc, #-3988]	; b0e4 <main+0x3034>
    c074:	e593300c 	ldr	r3, [r3, #12]
    c078:	e1520003 	cmp	r2, r3
    c07c:	1a000032 	bne	c14c <main+0x409c>
    c080:	e51f3fa4 	ldr	r3, [pc, #-4004]	; b0e4 <main+0x3034>
    c084:	e5932010 	ldr	r2, [r3, #16]
    c088:	e51f3fac 	ldr	r3, [pc, #-4012]	; b0e4 <main+0x3034>
    c08c:	e5933000 	ldr	r3, [r3]
    c090:	e1520003 	cmp	r2, r3
    c094:	1a00002c 	bne	c14c <main+0x409c>
    c098:	e51f3fbc 	ldr	r3, [pc, #-4028]	; b0e4 <main+0x3034>
    c09c:	e5933004 	ldr	r3, [r3, #4]
    c0a0:	e58d32e8 	str	r3, [sp, #744]	; 0x2e8
    c0a4:	e51f3fc8 	ldr	r3, [pc, #-4040]	; b0e4 <main+0x3034>
    c0a8:	e5933010 	ldr	r3, [r3, #16]
    c0ac:	e58d32e4 	str	r3, [sp, #740]	; 0x2e4
    c0b0:	e59d22e4 	ldr	r2, [sp, #740]	; 0x2e4
    c0b4:	e59d32e8 	ldr	r3, [sp, #744]	; 0x2e8
    c0b8:	e1520003 	cmp	r2, r3
    c0bc:	da000022 	ble	c14c <main+0x409c>
    c0c0:	e51f3fe4 	ldr	r3, [pc, #-4068]	; b0e4 <main+0x3034>
    c0c4:	e5933008 	ldr	r3, [r3, #8]
    c0c8:	e51f2fec 	ldr	r2, [pc, #-4076]	; b0e4 <main+0x3034>
    c0cc:	e5823000 	str	r3, [r2]
    c0d0:	e51f3ff0 	ldr	r3, [pc, #-4080]	; b0e8 <main+0x3038>
    c0d4:	e5933000 	ldr	r3, [r3]
    c0d8:	e2433004 	sub	r3, r3, #4
    c0dc:	e51f2ffc 	ldr	r2, [pc, #-4092]	; b0e8 <main+0x3038>
    c0e0:	e5823000 	str	r3, [r2]
    c0e4:	e59d22e8 	ldr	r2, [sp, #744]	; 0x2e8
    c0e8:	e59d32e4 	ldr	r3, [sp, #740]	; 0x2e4
    c0ec:	e0823003 	add	r3, r2, r3
    c0f0:	e58d32e0 	str	r3, [sp, #736]	; 0x2e0
    c0f4:	e59f3ff8 	ldr	r3, [pc, #4088]	; d0f4 <main+0x5044>
    c0f8:	e5933000 	ldr	r3, [r3]
    c0fc:	e59f1ff4 	ldr	r1, [pc, #4084]	; d0f8 <main+0x5048>
    c100:	e59d22e8 	ldr	r2, [sp, #744]	; 0x2e8
    c104:	e7812103 	str	r2, [r1, r3, lsl #2]
    c108:	e59f3fe4 	ldr	r3, [pc, #4068]	; d0f4 <main+0x5044>
    c10c:	e5933000 	ldr	r3, [r3]
    c110:	e2833001 	add	r3, r3, #1
    c114:	e59f1fdc 	ldr	r1, [pc, #4060]	; d0f8 <main+0x5048>
    c118:	e59d22e4 	ldr	r2, [sp, #740]	; 0x2e4
    c11c:	e7812103 	str	r2, [r1, r3, lsl #2]
    c120:	e59f3fcc 	ldr	r3, [pc, #4044]	; d0f4 <main+0x5044>
    c124:	e5933000 	ldr	r3, [r3]
    c128:	e2833002 	add	r3, r3, #2
    c12c:	e59f1fc4 	ldr	r1, [pc, #4036]	; d0f8 <main+0x5048>
    c130:	e59d22e0 	ldr	r2, [sp, #736]	; 0x2e0
    c134:	e7812103 	str	r2, [r1, r3, lsl #2]
    c138:	e59f3fb4 	ldr	r3, [pc, #4020]	; d0f4 <main+0x5044>
    c13c:	e5933000 	ldr	r3, [r3]
    c140:	e2833003 	add	r3, r3, #3
    c144:	e59f2fa8 	ldr	r2, [pc, #4008]	; d0f4 <main+0x5044>
    c148:	e5823000 	str	r3, [r2]
    c14c:	e59f3fac 	ldr	r3, [pc, #4012]	; d100 <main+0x5050>
    c150:	e5933000 	ldr	r3, [r3]
    c154:	e3530004 	cmp	r3, #4
    c158:	da000039 	ble	c244 <main+0x4194>
    c15c:	e59f3f90 	ldr	r3, [pc, #3984]	; d0f4 <main+0x5044>
    c160:	e5933000 	ldr	r3, [r3]
    c164:	e2833003 	add	r3, r3, #3
    c168:	e3530006 	cmp	r3, #6
    c16c:	ca000034 	bgt	c244 <main+0x4194>
    c170:	e59f3f90 	ldr	r3, [pc, #3984]	; d108 <main+0x5058>
    c174:	e5932010 	ldr	r2, [r3, #16]
    c178:	e59f3f88 	ldr	r3, [pc, #3976]	; d108 <main+0x5058>
    c17c:	e593300c 	ldr	r3, [r3, #12]
    c180:	e1520003 	cmp	r2, r3
    c184:	1a00002e 	bne	c244 <main+0x4194>
    c188:	e59f3f78 	ldr	r3, [pc, #3960]	; d108 <main+0x5058>
    c18c:	e5932010 	ldr	r2, [r3, #16]
    c190:	e59f3f70 	ldr	r3, [pc, #3952]	; d108 <main+0x5058>
    c194:	e5933008 	ldr	r3, [r3, #8]
    c198:	e1520003 	cmp	r2, r3
    c19c:	1a000028 	bne	c244 <main+0x4194>
    c1a0:	e59f3f60 	ldr	r3, [pc, #3936]	; d108 <main+0x5058>
    c1a4:	e5933004 	ldr	r3, [r3, #4]
    c1a8:	e58d32dc 	str	r3, [sp, #732]	; 0x2dc
    c1ac:	e59f3f54 	ldr	r3, [pc, #3924]	; d108 <main+0x5058>
    c1b0:	e5933010 	ldr	r3, [r3, #16]
    c1b4:	e58d32d8 	str	r3, [sp, #728]	; 0x2d8
    c1b8:	e59d22d8 	ldr	r2, [sp, #728]	; 0x2d8
    c1bc:	e59d32dc 	ldr	r3, [sp, #732]	; 0x2dc
    c1c0:	e1520003 	cmp	r2, r3
    c1c4:	da00001e 	ble	c244 <main+0x4194>
    c1c8:	e59f3f30 	ldr	r3, [pc, #3888]	; d100 <main+0x5050>
    c1cc:	e5933000 	ldr	r3, [r3]
    c1d0:	e2433004 	sub	r3, r3, #4
    c1d4:	e59f2f24 	ldr	r2, [pc, #3876]	; d100 <main+0x5050>
    c1d8:	e5823000 	str	r3, [r2]
    c1dc:	e59d22dc 	ldr	r2, [sp, #732]	; 0x2dc
    c1e0:	e59d32d8 	ldr	r3, [sp, #728]	; 0x2d8
    c1e4:	e0823003 	add	r3, r2, r3
    c1e8:	e58d32d4 	str	r3, [sp, #724]	; 0x2d4
    c1ec:	e59f3f00 	ldr	r3, [pc, #3840]	; d0f4 <main+0x5044>
    c1f0:	e5933000 	ldr	r3, [r3]
    c1f4:	e59f1efc 	ldr	r1, [pc, #3836]	; d0f8 <main+0x5048>
    c1f8:	e59d22dc 	ldr	r2, [sp, #732]	; 0x2dc
    c1fc:	e7812103 	str	r2, [r1, r3, lsl #2]
    c200:	e59f3eec 	ldr	r3, [pc, #3820]	; d0f4 <main+0x5044>
    c204:	e5933000 	ldr	r3, [r3]
    c208:	e2833001 	add	r3, r3, #1
    c20c:	e59f1ee4 	ldr	r1, [pc, #3812]	; d0f8 <main+0x5048>
    c210:	e59d22d8 	ldr	r2, [sp, #728]	; 0x2d8
    c214:	e7812103 	str	r2, [r1, r3, lsl #2]
    c218:	e59f3ed4 	ldr	r3, [pc, #3796]	; d0f4 <main+0x5044>
    c21c:	e5933000 	ldr	r3, [r3]
    c220:	e2833002 	add	r3, r3, #2
    c224:	e59f1ecc 	ldr	r1, [pc, #3788]	; d0f8 <main+0x5048>
    c228:	e59d22d4 	ldr	r2, [sp, #724]	; 0x2d4
    c22c:	e7812103 	str	r2, [r1, r3, lsl #2]
    c230:	e59f3ebc 	ldr	r3, [pc, #3772]	; d0f4 <main+0x5044>
    c234:	e5933000 	ldr	r3, [r3]
    c238:	e2833003 	add	r3, r3, #3
    c23c:	e59f2eb0 	ldr	r2, [pc, #3760]	; d0f4 <main+0x5044>
    c240:	e5823000 	str	r3, [r2]
    c244:	e59f3eb4 	ldr	r3, [pc, #3764]	; d100 <main+0x5050>
    c248:	e5933000 	ldr	r3, [r3]
    c24c:	e3530004 	cmp	r3, #4
    c250:	da00003d 	ble	c34c <main+0x429c>
    c254:	e59f3e98 	ldr	r3, [pc, #3736]	; d0f4 <main+0x5044>
    c258:	e5933000 	ldr	r3, [r3]
    c25c:	e2833003 	add	r3, r3, #3
    c260:	e3530006 	cmp	r3, #6
    c264:	ca000038 	bgt	c34c <main+0x429c>
    c268:	e59f3e98 	ldr	r3, [pc, #3736]	; d108 <main+0x5058>
    c26c:	e5932000 	ldr	r2, [r3]
    c270:	e59f3e90 	ldr	r3, [pc, #3728]	; d108 <main+0x5058>
    c274:	e5933004 	ldr	r3, [r3, #4]
    c278:	e1520003 	cmp	r2, r3
    c27c:	1a000032 	bne	c34c <main+0x429c>
    c280:	e59f3e80 	ldr	r3, [pc, #3712]	; d108 <main+0x5058>
    c284:	e5932000 	ldr	r2, [r3]
    c288:	e59f3e78 	ldr	r3, [pc, #3704]	; d108 <main+0x5058>
    c28c:	e5933010 	ldr	r3, [r3, #16]
    c290:	e1520003 	cmp	r2, r3
    c294:	1a00002c 	bne	c34c <main+0x429c>
    c298:	e59f3e68 	ldr	r3, [pc, #3688]	; d108 <main+0x5058>
    c29c:	e5933008 	ldr	r3, [r3, #8]
    c2a0:	e58d32d0 	str	r3, [sp, #720]	; 0x2d0
    c2a4:	e59f3e5c 	ldr	r3, [pc, #3676]	; d108 <main+0x5058>
    c2a8:	e5933000 	ldr	r3, [r3]
    c2ac:	e58d32cc 	str	r3, [sp, #716]	; 0x2cc
    c2b0:	e59d22cc 	ldr	r2, [sp, #716]	; 0x2cc
    c2b4:	e59d32d0 	ldr	r3, [sp, #720]	; 0x2d0
    c2b8:	e1520003 	cmp	r2, r3
    c2bc:	da000022 	ble	c34c <main+0x429c>
    c2c0:	e59f3e40 	ldr	r3, [pc, #3648]	; d108 <main+0x5058>
    c2c4:	e593300c 	ldr	r3, [r3, #12]
    c2c8:	e59f2e38 	ldr	r2, [pc, #3640]	; d108 <main+0x5058>
    c2cc:	e5823000 	str	r3, [r2]
    c2d0:	e59f3e28 	ldr	r3, [pc, #3624]	; d100 <main+0x5050>
    c2d4:	e5933000 	ldr	r3, [r3]
    c2d8:	e2433004 	sub	r3, r3, #4
    c2dc:	e59f2e1c 	ldr	r2, [pc, #3612]	; d100 <main+0x5050>
    c2e0:	e5823000 	str	r3, [r2]
    c2e4:	e59d22d0 	ldr	r2, [sp, #720]	; 0x2d0
    c2e8:	e59d32cc 	ldr	r3, [sp, #716]	; 0x2cc
    c2ec:	e0823003 	add	r3, r2, r3
    c2f0:	e58d32c8 	str	r3, [sp, #712]	; 0x2c8
    c2f4:	e59f3df8 	ldr	r3, [pc, #3576]	; d0f4 <main+0x5044>
    c2f8:	e5933000 	ldr	r3, [r3]
    c2fc:	e59f1df4 	ldr	r1, [pc, #3572]	; d0f8 <main+0x5048>
    c300:	e59d22d0 	ldr	r2, [sp, #720]	; 0x2d0
    c304:	e7812103 	str	r2, [r1, r3, lsl #2]
    c308:	e59f3de4 	ldr	r3, [pc, #3556]	; d0f4 <main+0x5044>
    c30c:	e5933000 	ldr	r3, [r3]
    c310:	e2833001 	add	r3, r3, #1
    c314:	e59f1ddc 	ldr	r1, [pc, #3548]	; d0f8 <main+0x5048>
    c318:	e59d22cc 	ldr	r2, [sp, #716]	; 0x2cc
    c31c:	e7812103 	str	r2, [r1, r3, lsl #2]
    c320:	e59f3dcc 	ldr	r3, [pc, #3532]	; d0f4 <main+0x5044>
    c324:	e5933000 	ldr	r3, [r3]
    c328:	e2833002 	add	r3, r3, #2
    c32c:	e59f1dc4 	ldr	r1, [pc, #3524]	; d0f8 <main+0x5048>
    c330:	e59d22c8 	ldr	r2, [sp, #712]	; 0x2c8
    c334:	e7812103 	str	r2, [r1, r3, lsl #2]
    c338:	e59f3db4 	ldr	r3, [pc, #3508]	; d0f4 <main+0x5044>
    c33c:	e5933000 	ldr	r3, [r3]
    c340:	e2833003 	add	r3, r3, #3
    c344:	e59f2da8 	ldr	r2, [pc, #3496]	; d0f4 <main+0x5044>
    c348:	e5823000 	str	r3, [r2]
    c34c:	e59f3dac 	ldr	r3, [pc, #3500]	; d100 <main+0x5050>
    c350:	e5933000 	ldr	r3, [r3]
    c354:	e3530004 	cmp	r3, #4
    c358:	da00003d 	ble	c454 <main+0x43a4>
    c35c:	e59f3d90 	ldr	r3, [pc, #3472]	; d0f4 <main+0x5044>
    c360:	e5933000 	ldr	r3, [r3]
    c364:	e2833003 	add	r3, r3, #3
    c368:	e3530006 	cmp	r3, #6
    c36c:	ca000038 	bgt	c454 <main+0x43a4>
    c370:	e59f3d90 	ldr	r3, [pc, #3472]	; d108 <main+0x5058>
    c374:	e5932000 	ldr	r2, [r3]
    c378:	e59f3d88 	ldr	r3, [pc, #3464]	; d108 <main+0x5058>
    c37c:	e593300c 	ldr	r3, [r3, #12]
    c380:	e1520003 	cmp	r2, r3
    c384:	1a000032 	bne	c454 <main+0x43a4>
    c388:	e59f3d78 	ldr	r3, [pc, #3448]	; d108 <main+0x5058>
    c38c:	e5932000 	ldr	r2, [r3]
    c390:	e59f3d70 	ldr	r3, [pc, #3440]	; d108 <main+0x5058>
    c394:	e5933010 	ldr	r3, [r3, #16]
    c398:	e1520003 	cmp	r2, r3
    c39c:	1a00002c 	bne	c454 <main+0x43a4>
    c3a0:	e59f3d60 	ldr	r3, [pc, #3424]	; d108 <main+0x5058>
    c3a4:	e5933008 	ldr	r3, [r3, #8]
    c3a8:	e58d32c4 	str	r3, [sp, #708]	; 0x2c4
    c3ac:	e59f3d54 	ldr	r3, [pc, #3412]	; d108 <main+0x5058>
    c3b0:	e5933000 	ldr	r3, [r3]
    c3b4:	e58d32c0 	str	r3, [sp, #704]	; 0x2c0
    c3b8:	e59d22c0 	ldr	r2, [sp, #704]	; 0x2c0
    c3bc:	e59d32c4 	ldr	r3, [sp, #708]	; 0x2c4
    c3c0:	e1520003 	cmp	r2, r3
    c3c4:	da000022 	ble	c454 <main+0x43a4>
    c3c8:	e59f3d38 	ldr	r3, [pc, #3384]	; d108 <main+0x5058>
    c3cc:	e5933004 	ldr	r3, [r3, #4]
    c3d0:	e59f2d30 	ldr	r2, [pc, #3376]	; d108 <main+0x5058>
    c3d4:	e5823000 	str	r3, [r2]
    c3d8:	e59f3d20 	ldr	r3, [pc, #3360]	; d100 <main+0x5050>
    c3dc:	e5933000 	ldr	r3, [r3]
    c3e0:	e2433004 	sub	r3, r3, #4
    c3e4:	e59f2d14 	ldr	r2, [pc, #3348]	; d100 <main+0x5050>
    c3e8:	e5823000 	str	r3, [r2]
    c3ec:	e59d22c4 	ldr	r2, [sp, #708]	; 0x2c4
    c3f0:	e59d32c0 	ldr	r3, [sp, #704]	; 0x2c0
    c3f4:	e0823003 	add	r3, r2, r3
    c3f8:	e58d32bc 	str	r3, [sp, #700]	; 0x2bc
    c3fc:	e59f3cf0 	ldr	r3, [pc, #3312]	; d0f4 <main+0x5044>
    c400:	e5933000 	ldr	r3, [r3]
    c404:	e59f1cec 	ldr	r1, [pc, #3308]	; d0f8 <main+0x5048>
    c408:	e59d22c4 	ldr	r2, [sp, #708]	; 0x2c4
    c40c:	e7812103 	str	r2, [r1, r3, lsl #2]
    c410:	e59f3cdc 	ldr	r3, [pc, #3292]	; d0f4 <main+0x5044>
    c414:	e5933000 	ldr	r3, [r3]
    c418:	e2833001 	add	r3, r3, #1
    c41c:	e59f1cd4 	ldr	r1, [pc, #3284]	; d0f8 <main+0x5048>
    c420:	e59d22c0 	ldr	r2, [sp, #704]	; 0x2c0
    c424:	e7812103 	str	r2, [r1, r3, lsl #2]
    c428:	e59f3cc4 	ldr	r3, [pc, #3268]	; d0f4 <main+0x5044>
    c42c:	e5933000 	ldr	r3, [r3]
    c430:	e2833002 	add	r3, r3, #2
    c434:	e59f1cbc 	ldr	r1, [pc, #3260]	; d0f8 <main+0x5048>
    c438:	e59d22bc 	ldr	r2, [sp, #700]	; 0x2bc
    c43c:	e7812103 	str	r2, [r1, r3, lsl #2]
    c440:	e59f3cac 	ldr	r3, [pc, #3244]	; d0f4 <main+0x5044>
    c444:	e5933000 	ldr	r3, [r3]
    c448:	e2833003 	add	r3, r3, #3
    c44c:	e59f2ca0 	ldr	r2, [pc, #3232]	; d0f4 <main+0x5044>
    c450:	e5823000 	str	r3, [r2]
    c454:	e59f3ca4 	ldr	r3, [pc, #3236]	; d100 <main+0x5050>
    c458:	e5933000 	ldr	r3, [r3]
    c45c:	e3530004 	cmp	r3, #4
    c460:	da00003d 	ble	c55c <main+0x44ac>
    c464:	e59f3c88 	ldr	r3, [pc, #3208]	; d0f4 <main+0x5044>
    c468:	e5933000 	ldr	r3, [r3]
    c46c:	e2833003 	add	r3, r3, #3
    c470:	e3530006 	cmp	r3, #6
    c474:	ca000038 	bgt	c55c <main+0x44ac>
    c478:	e59f3c88 	ldr	r3, [pc, #3208]	; d108 <main+0x5058>
    c47c:	e5932000 	ldr	r2, [r3]
    c480:	e59f3c80 	ldr	r3, [pc, #3200]	; d108 <main+0x5058>
    c484:	e5933010 	ldr	r3, [r3, #16]
    c488:	e1520003 	cmp	r2, r3
    c48c:	1a000032 	bne	c55c <main+0x44ac>
    c490:	e59f3c70 	ldr	r3, [pc, #3184]	; d108 <main+0x5058>
    c494:	e5932000 	ldr	r2, [r3]
    c498:	e59f3c68 	ldr	r3, [pc, #3176]	; d108 <main+0x5058>
    c49c:	e5933004 	ldr	r3, [r3, #4]
    c4a0:	e1520003 	cmp	r2, r3
    c4a4:	1a00002c 	bne	c55c <main+0x44ac>
    c4a8:	e59f3c58 	ldr	r3, [pc, #3160]	; d108 <main+0x5058>
    c4ac:	e5933008 	ldr	r3, [r3, #8]
    c4b0:	e58d32b8 	str	r3, [sp, #696]	; 0x2b8
    c4b4:	e59f3c4c 	ldr	r3, [pc, #3148]	; d108 <main+0x5058>
    c4b8:	e5933000 	ldr	r3, [r3]
    c4bc:	e58d32b4 	str	r3, [sp, #692]	; 0x2b4
    c4c0:	e59d22b4 	ldr	r2, [sp, #692]	; 0x2b4
    c4c4:	e59d32b8 	ldr	r3, [sp, #696]	; 0x2b8
    c4c8:	e1520003 	cmp	r2, r3
    c4cc:	da000022 	ble	c55c <main+0x44ac>
    c4d0:	e59f3c30 	ldr	r3, [pc, #3120]	; d108 <main+0x5058>
    c4d4:	e593300c 	ldr	r3, [r3, #12]
    c4d8:	e59f2c28 	ldr	r2, [pc, #3112]	; d108 <main+0x5058>
    c4dc:	e5823000 	str	r3, [r2]
    c4e0:	e59f3c18 	ldr	r3, [pc, #3096]	; d100 <main+0x5050>
    c4e4:	e5933000 	ldr	r3, [r3]
    c4e8:	e2433004 	sub	r3, r3, #4
    c4ec:	e59f2c0c 	ldr	r2, [pc, #3084]	; d100 <main+0x5050>
    c4f0:	e5823000 	str	r3, [r2]
    c4f4:	e59d22b8 	ldr	r2, [sp, #696]	; 0x2b8
    c4f8:	e59d32b4 	ldr	r3, [sp, #692]	; 0x2b4
    c4fc:	e0823003 	add	r3, r2, r3
    c500:	e58d32b0 	str	r3, [sp, #688]	; 0x2b0
    c504:	e59f3be8 	ldr	r3, [pc, #3048]	; d0f4 <main+0x5044>
    c508:	e5933000 	ldr	r3, [r3]
    c50c:	e59f1be4 	ldr	r1, [pc, #3044]	; d0f8 <main+0x5048>
    c510:	e59d22b8 	ldr	r2, [sp, #696]	; 0x2b8
    c514:	e7812103 	str	r2, [r1, r3, lsl #2]
    c518:	e59f3bd4 	ldr	r3, [pc, #3028]	; d0f4 <main+0x5044>
    c51c:	e5933000 	ldr	r3, [r3]
    c520:	e2833001 	add	r3, r3, #1
    c524:	e59f1bcc 	ldr	r1, [pc, #3020]	; d0f8 <main+0x5048>
    c528:	e59d22b4 	ldr	r2, [sp, #692]	; 0x2b4
    c52c:	e7812103 	str	r2, [r1, r3, lsl #2]
    c530:	e59f3bbc 	ldr	r3, [pc, #3004]	; d0f4 <main+0x5044>
    c534:	e5933000 	ldr	r3, [r3]
    c538:	e2833002 	add	r3, r3, #2
    c53c:	e59f1bb4 	ldr	r1, [pc, #2996]	; d0f8 <main+0x5048>
    c540:	e59d22b0 	ldr	r2, [sp, #688]	; 0x2b0
    c544:	e7812103 	str	r2, [r1, r3, lsl #2]
    c548:	e59f3ba4 	ldr	r3, [pc, #2980]	; d0f4 <main+0x5044>
    c54c:	e5933000 	ldr	r3, [r3]
    c550:	e2833003 	add	r3, r3, #3
    c554:	e59f2b98 	ldr	r2, [pc, #2968]	; d0f4 <main+0x5044>
    c558:	e5823000 	str	r3, [r2]
    c55c:	e59f3b9c 	ldr	r3, [pc, #2972]	; d100 <main+0x5050>
    c560:	e5933000 	ldr	r3, [r3]
    c564:	e3530004 	cmp	r3, #4
    c568:	da00003d 	ble	c664 <main+0x45b4>
    c56c:	e59f3b80 	ldr	r3, [pc, #2944]	; d0f4 <main+0x5044>
    c570:	e5933000 	ldr	r3, [r3]
    c574:	e2833003 	add	r3, r3, #3
    c578:	e3530006 	cmp	r3, #6
    c57c:	ca000038 	bgt	c664 <main+0x45b4>
    c580:	e59f3b80 	ldr	r3, [pc, #2944]	; d108 <main+0x5058>
    c584:	e5932000 	ldr	r2, [r3]
    c588:	e59f3b78 	ldr	r3, [pc, #2936]	; d108 <main+0x5058>
    c58c:	e5933010 	ldr	r3, [r3, #16]
    c590:	e1520003 	cmp	r2, r3
    c594:	1a000032 	bne	c664 <main+0x45b4>
    c598:	e59f3b68 	ldr	r3, [pc, #2920]	; d108 <main+0x5058>
    c59c:	e5932000 	ldr	r2, [r3]
    c5a0:	e59f3b60 	ldr	r3, [pc, #2912]	; d108 <main+0x5058>
    c5a4:	e593300c 	ldr	r3, [r3, #12]
    c5a8:	e1520003 	cmp	r2, r3
    c5ac:	1a00002c 	bne	c664 <main+0x45b4>
    c5b0:	e59f3b50 	ldr	r3, [pc, #2896]	; d108 <main+0x5058>
    c5b4:	e5933008 	ldr	r3, [r3, #8]
    c5b8:	e58d32ac 	str	r3, [sp, #684]	; 0x2ac
    c5bc:	e59f3b44 	ldr	r3, [pc, #2884]	; d108 <main+0x5058>
    c5c0:	e5933000 	ldr	r3, [r3]
    c5c4:	e58d32a8 	str	r3, [sp, #680]	; 0x2a8
    c5c8:	e59d22a8 	ldr	r2, [sp, #680]	; 0x2a8
    c5cc:	e59d32ac 	ldr	r3, [sp, #684]	; 0x2ac
    c5d0:	e1520003 	cmp	r2, r3
    c5d4:	da000022 	ble	c664 <main+0x45b4>
    c5d8:	e59f3b28 	ldr	r3, [pc, #2856]	; d108 <main+0x5058>
    c5dc:	e5933004 	ldr	r3, [r3, #4]
    c5e0:	e59f2b20 	ldr	r2, [pc, #2848]	; d108 <main+0x5058>
    c5e4:	e5823000 	str	r3, [r2]
    c5e8:	e59f3b10 	ldr	r3, [pc, #2832]	; d100 <main+0x5050>
    c5ec:	e5933000 	ldr	r3, [r3]
    c5f0:	e2433004 	sub	r3, r3, #4
    c5f4:	e59f2b04 	ldr	r2, [pc, #2820]	; d100 <main+0x5050>
    c5f8:	e5823000 	str	r3, [r2]
    c5fc:	e59d22ac 	ldr	r2, [sp, #684]	; 0x2ac
    c600:	e59d32a8 	ldr	r3, [sp, #680]	; 0x2a8
    c604:	e0823003 	add	r3, r2, r3
    c608:	e58d32a4 	str	r3, [sp, #676]	; 0x2a4
    c60c:	e59f3ae0 	ldr	r3, [pc, #2784]	; d0f4 <main+0x5044>
    c610:	e5933000 	ldr	r3, [r3]
    c614:	e59f1adc 	ldr	r1, [pc, #2780]	; d0f8 <main+0x5048>
    c618:	e59d22ac 	ldr	r2, [sp, #684]	; 0x2ac
    c61c:	e7812103 	str	r2, [r1, r3, lsl #2]
    c620:	e59f3acc 	ldr	r3, [pc, #2764]	; d0f4 <main+0x5044>
    c624:	e5933000 	ldr	r3, [r3]
    c628:	e2833001 	add	r3, r3, #1
    c62c:	e59f1ac4 	ldr	r1, [pc, #2756]	; d0f8 <main+0x5048>
    c630:	e59d22a8 	ldr	r2, [sp, #680]	; 0x2a8
    c634:	e7812103 	str	r2, [r1, r3, lsl #2]
    c638:	e59f3ab4 	ldr	r3, [pc, #2740]	; d0f4 <main+0x5044>
    c63c:	e5933000 	ldr	r3, [r3]
    c640:	e2833002 	add	r3, r3, #2
    c644:	e59f1aac 	ldr	r1, [pc, #2732]	; d0f8 <main+0x5048>
    c648:	e59d22a4 	ldr	r2, [sp, #676]	; 0x2a4
    c64c:	e7812103 	str	r2, [r1, r3, lsl #2]
    c650:	e59f3a9c 	ldr	r3, [pc, #2716]	; d0f4 <main+0x5044>
    c654:	e5933000 	ldr	r3, [r3]
    c658:	e2833003 	add	r3, r3, #3
    c65c:	e59f2a90 	ldr	r2, [pc, #2704]	; d0f4 <main+0x5044>
    c660:	e5823000 	str	r3, [r2]
    c664:	e59f3a94 	ldr	r3, [pc, #2708]	; d100 <main+0x5050>
    c668:	e5933000 	ldr	r3, [r3]
    c66c:	e3530004 	cmp	r3, #4
    c670:	da00003d 	ble	c76c <main+0x46bc>
    c674:	e59f3a78 	ldr	r3, [pc, #2680]	; d0f4 <main+0x5044>
    c678:	e5933000 	ldr	r3, [r3]
    c67c:	e2833003 	add	r3, r3, #3
    c680:	e3530006 	cmp	r3, #6
    c684:	ca000038 	bgt	c76c <main+0x46bc>
    c688:	e59f3a78 	ldr	r3, [pc, #2680]	; d108 <main+0x5058>
    c68c:	e5932004 	ldr	r2, [r3, #4]
    c690:	e59f3a70 	ldr	r3, [pc, #2672]	; d108 <main+0x5058>
    c694:	e5933000 	ldr	r3, [r3]
    c698:	e1520003 	cmp	r2, r3
    c69c:	1a000032 	bne	c76c <main+0x46bc>
    c6a0:	e59f3a60 	ldr	r3, [pc, #2656]	; d108 <main+0x5058>
    c6a4:	e5932004 	ldr	r2, [r3, #4]
    c6a8:	e59f3a58 	ldr	r3, [pc, #2648]	; d108 <main+0x5058>
    c6ac:	e5933010 	ldr	r3, [r3, #16]
    c6b0:	e1520003 	cmp	r2, r3
    c6b4:	1a00002c 	bne	c76c <main+0x46bc>
    c6b8:	e59f3a48 	ldr	r3, [pc, #2632]	; d108 <main+0x5058>
    c6bc:	e5933008 	ldr	r3, [r3, #8]
    c6c0:	e58d32a0 	str	r3, [sp, #672]	; 0x2a0
    c6c4:	e59f3a3c 	ldr	r3, [pc, #2620]	; d108 <main+0x5058>
    c6c8:	e5933004 	ldr	r3, [r3, #4]
    c6cc:	e58d329c 	str	r3, [sp, #668]	; 0x29c
    c6d0:	e59d229c 	ldr	r2, [sp, #668]	; 0x29c
    c6d4:	e59d32a0 	ldr	r3, [sp, #672]	; 0x2a0
    c6d8:	e1520003 	cmp	r2, r3
    c6dc:	da000022 	ble	c76c <main+0x46bc>
    c6e0:	e59f3a20 	ldr	r3, [pc, #2592]	; d108 <main+0x5058>
    c6e4:	e593300c 	ldr	r3, [r3, #12]
    c6e8:	e59f2a18 	ldr	r2, [pc, #2584]	; d108 <main+0x5058>
    c6ec:	e5823000 	str	r3, [r2]
    c6f0:	e59f3a08 	ldr	r3, [pc, #2568]	; d100 <main+0x5050>
    c6f4:	e5933000 	ldr	r3, [r3]
    c6f8:	e2433004 	sub	r3, r3, #4
    c6fc:	e59f29fc 	ldr	r2, [pc, #2556]	; d100 <main+0x5050>
    c700:	e5823000 	str	r3, [r2]
    c704:	e59d22a0 	ldr	r2, [sp, #672]	; 0x2a0
    c708:	e59d329c 	ldr	r3, [sp, #668]	; 0x29c
    c70c:	e0823003 	add	r3, r2, r3
    c710:	e58d3298 	str	r3, [sp, #664]	; 0x298
    c714:	e59f39d8 	ldr	r3, [pc, #2520]	; d0f4 <main+0x5044>
    c718:	e5933000 	ldr	r3, [r3]
    c71c:	e59f19d4 	ldr	r1, [pc, #2516]	; d0f8 <main+0x5048>
    c720:	e59d22a0 	ldr	r2, [sp, #672]	; 0x2a0
    c724:	e7812103 	str	r2, [r1, r3, lsl #2]
    c728:	e59f39c4 	ldr	r3, [pc, #2500]	; d0f4 <main+0x5044>
    c72c:	e5933000 	ldr	r3, [r3]
    c730:	e2833001 	add	r3, r3, #1
    c734:	e59f19bc 	ldr	r1, [pc, #2492]	; d0f8 <main+0x5048>
    c738:	e59d229c 	ldr	r2, [sp, #668]	; 0x29c
    c73c:	e7812103 	str	r2, [r1, r3, lsl #2]
    c740:	e59f39ac 	ldr	r3, [pc, #2476]	; d0f4 <main+0x5044>
    c744:	e5933000 	ldr	r3, [r3]
    c748:	e2833002 	add	r3, r3, #2
    c74c:	e59f19a4 	ldr	r1, [pc, #2468]	; d0f8 <main+0x5048>
    c750:	e59d2298 	ldr	r2, [sp, #664]	; 0x298
    c754:	e7812103 	str	r2, [r1, r3, lsl #2]
    c758:	e59f3994 	ldr	r3, [pc, #2452]	; d0f4 <main+0x5044>
    c75c:	e5933000 	ldr	r3, [r3]
    c760:	e2833003 	add	r3, r3, #3
    c764:	e59f2988 	ldr	r2, [pc, #2440]	; d0f4 <main+0x5044>
    c768:	e5823000 	str	r3, [r2]
    c76c:	e59f398c 	ldr	r3, [pc, #2444]	; d100 <main+0x5050>
    c770:	e5933000 	ldr	r3, [r3]
    c774:	e3530004 	cmp	r3, #4
    c778:	da000039 	ble	c864 <main+0x47b4>
    c77c:	e59f3970 	ldr	r3, [pc, #2416]	; d0f4 <main+0x5044>
    c780:	e5933000 	ldr	r3, [r3]
    c784:	e2833003 	add	r3, r3, #3
    c788:	e3530006 	cmp	r3, #6
    c78c:	ca000034 	bgt	c864 <main+0x47b4>
    c790:	e59f3970 	ldr	r3, [pc, #2416]	; d108 <main+0x5058>
    c794:	e5932004 	ldr	r2, [r3, #4]
    c798:	e59f3968 	ldr	r3, [pc, #2408]	; d108 <main+0x5058>
    c79c:	e593300c 	ldr	r3, [r3, #12]
    c7a0:	e1520003 	cmp	r2, r3
    c7a4:	1a00002e 	bne	c864 <main+0x47b4>
    c7a8:	e59f3958 	ldr	r3, [pc, #2392]	; d108 <main+0x5058>
    c7ac:	e5932004 	ldr	r2, [r3, #4]
    c7b0:	e59f3950 	ldr	r3, [pc, #2384]	; d108 <main+0x5058>
    c7b4:	e5933010 	ldr	r3, [r3, #16]
    c7b8:	e1520003 	cmp	r2, r3
    c7bc:	1a000028 	bne	c864 <main+0x47b4>
    c7c0:	e59f3940 	ldr	r3, [pc, #2368]	; d108 <main+0x5058>
    c7c4:	e5933008 	ldr	r3, [r3, #8]
    c7c8:	e58d3294 	str	r3, [sp, #660]	; 0x294
    c7cc:	e59f3934 	ldr	r3, [pc, #2356]	; d108 <main+0x5058>
    c7d0:	e5933004 	ldr	r3, [r3, #4]
    c7d4:	e58d3290 	str	r3, [sp, #656]	; 0x290
    c7d8:	e59d2290 	ldr	r2, [sp, #656]	; 0x290
    c7dc:	e59d3294 	ldr	r3, [sp, #660]	; 0x294
    c7e0:	e1520003 	cmp	r2, r3
    c7e4:	da00001e 	ble	c864 <main+0x47b4>
    c7e8:	e59f3910 	ldr	r3, [pc, #2320]	; d100 <main+0x5050>
    c7ec:	e5933000 	ldr	r3, [r3]
    c7f0:	e2433004 	sub	r3, r3, #4
    c7f4:	e59f2904 	ldr	r2, [pc, #2308]	; d100 <main+0x5050>
    c7f8:	e5823000 	str	r3, [r2]
    c7fc:	e59d2294 	ldr	r2, [sp, #660]	; 0x294
    c800:	e59d3290 	ldr	r3, [sp, #656]	; 0x290
    c804:	e0823003 	add	r3, r2, r3
    c808:	e58d328c 	str	r3, [sp, #652]	; 0x28c
    c80c:	e59f38e0 	ldr	r3, [pc, #2272]	; d0f4 <main+0x5044>
    c810:	e5933000 	ldr	r3, [r3]
    c814:	e59f18dc 	ldr	r1, [pc, #2268]	; d0f8 <main+0x5048>
    c818:	e59d2294 	ldr	r2, [sp, #660]	; 0x294
    c81c:	e7812103 	str	r2, [r1, r3, lsl #2]
    c820:	e59f38cc 	ldr	r3, [pc, #2252]	; d0f4 <main+0x5044>
    c824:	e5933000 	ldr	r3, [r3]
    c828:	e2833001 	add	r3, r3, #1
    c82c:	e59f18c4 	ldr	r1, [pc, #2244]	; d0f8 <main+0x5048>
    c830:	e59d2290 	ldr	r2, [sp, #656]	; 0x290
    c834:	e7812103 	str	r2, [r1, r3, lsl #2]
    c838:	e59f38b4 	ldr	r3, [pc, #2228]	; d0f4 <main+0x5044>
    c83c:	e5933000 	ldr	r3, [r3]
    c840:	e2833002 	add	r3, r3, #2
    c844:	e59f18ac 	ldr	r1, [pc, #2220]	; d0f8 <main+0x5048>
    c848:	e59d228c 	ldr	r2, [sp, #652]	; 0x28c
    c84c:	e7812103 	str	r2, [r1, r3, lsl #2]
    c850:	e59f389c 	ldr	r3, [pc, #2204]	; d0f4 <main+0x5044>
    c854:	e5933000 	ldr	r3, [r3]
    c858:	e2833003 	add	r3, r3, #3
    c85c:	e59f2890 	ldr	r2, [pc, #2192]	; d0f4 <main+0x5044>
    c860:	e5823000 	str	r3, [r2]
    c864:	e59f3894 	ldr	r3, [pc, #2196]	; d100 <main+0x5050>
    c868:	e5933000 	ldr	r3, [r3]
    c86c:	e3530004 	cmp	r3, #4
    c870:	da00003d 	ble	c96c <main+0x48bc>
    c874:	e59f3878 	ldr	r3, [pc, #2168]	; d0f4 <main+0x5044>
    c878:	e5933000 	ldr	r3, [r3]
    c87c:	e2833003 	add	r3, r3, #3
    c880:	e3530006 	cmp	r3, #6
    c884:	ca000038 	bgt	c96c <main+0x48bc>
    c888:	e59f3878 	ldr	r3, [pc, #2168]	; d108 <main+0x5058>
    c88c:	e5932004 	ldr	r2, [r3, #4]
    c890:	e59f3870 	ldr	r3, [pc, #2160]	; d108 <main+0x5058>
    c894:	e5933010 	ldr	r3, [r3, #16]
    c898:	e1520003 	cmp	r2, r3
    c89c:	1a000032 	bne	c96c <main+0x48bc>
    c8a0:	e59f3860 	ldr	r3, [pc, #2144]	; d108 <main+0x5058>
    c8a4:	e5932004 	ldr	r2, [r3, #4]
    c8a8:	e59f3858 	ldr	r3, [pc, #2136]	; d108 <main+0x5058>
    c8ac:	e5933000 	ldr	r3, [r3]
    c8b0:	e1520003 	cmp	r2, r3
    c8b4:	1a00002c 	bne	c96c <main+0x48bc>
    c8b8:	e59f3848 	ldr	r3, [pc, #2120]	; d108 <main+0x5058>
    c8bc:	e5933008 	ldr	r3, [r3, #8]
    c8c0:	e58d3288 	str	r3, [sp, #648]	; 0x288
    c8c4:	e59f383c 	ldr	r3, [pc, #2108]	; d108 <main+0x5058>
    c8c8:	e5933004 	ldr	r3, [r3, #4]
    c8cc:	e58d3284 	str	r3, [sp, #644]	; 0x284
    c8d0:	e59d2284 	ldr	r2, [sp, #644]	; 0x284
    c8d4:	e59d3288 	ldr	r3, [sp, #648]	; 0x288
    c8d8:	e1520003 	cmp	r2, r3
    c8dc:	da000022 	ble	c96c <main+0x48bc>
    c8e0:	e59f3820 	ldr	r3, [pc, #2080]	; d108 <main+0x5058>
    c8e4:	e593300c 	ldr	r3, [r3, #12]
    c8e8:	e59f2818 	ldr	r2, [pc, #2072]	; d108 <main+0x5058>
    c8ec:	e5823000 	str	r3, [r2]
    c8f0:	e59f3808 	ldr	r3, [pc, #2056]	; d100 <main+0x5050>
    c8f4:	e5933000 	ldr	r3, [r3]
    c8f8:	e2433004 	sub	r3, r3, #4
    c8fc:	e59f27fc 	ldr	r2, [pc, #2044]	; d100 <main+0x5050>
    c900:	e5823000 	str	r3, [r2]
    c904:	e59d2288 	ldr	r2, [sp, #648]	; 0x288
    c908:	e59d3284 	ldr	r3, [sp, #644]	; 0x284
    c90c:	e0823003 	add	r3, r2, r3
    c910:	e58d3280 	str	r3, [sp, #640]	; 0x280
    c914:	e59f37d8 	ldr	r3, [pc, #2008]	; d0f4 <main+0x5044>
    c918:	e5933000 	ldr	r3, [r3]
    c91c:	e59f17d4 	ldr	r1, [pc, #2004]	; d0f8 <main+0x5048>
    c920:	e59d2288 	ldr	r2, [sp, #648]	; 0x288
    c924:	e7812103 	str	r2, [r1, r3, lsl #2]
    c928:	e59f37c4 	ldr	r3, [pc, #1988]	; d0f4 <main+0x5044>
    c92c:	e5933000 	ldr	r3, [r3]
    c930:	e2833001 	add	r3, r3, #1
    c934:	e59f17bc 	ldr	r1, [pc, #1980]	; d0f8 <main+0x5048>
    c938:	e59d2284 	ldr	r2, [sp, #644]	; 0x284
    c93c:	e7812103 	str	r2, [r1, r3, lsl #2]
    c940:	e59f37ac 	ldr	r3, [pc, #1964]	; d0f4 <main+0x5044>
    c944:	e5933000 	ldr	r3, [r3]
    c948:	e2833002 	add	r3, r3, #2
    c94c:	e59f17a4 	ldr	r1, [pc, #1956]	; d0f8 <main+0x5048>
    c950:	e59d2280 	ldr	r2, [sp, #640]	; 0x280
    c954:	e7812103 	str	r2, [r1, r3, lsl #2]
    c958:	e59f3794 	ldr	r3, [pc, #1940]	; d0f4 <main+0x5044>
    c95c:	e5933000 	ldr	r3, [r3]
    c960:	e2833003 	add	r3, r3, #3
    c964:	e59f2788 	ldr	r2, [pc, #1928]	; d0f4 <main+0x5044>
    c968:	e5823000 	str	r3, [r2]
    c96c:	e59f378c 	ldr	r3, [pc, #1932]	; d100 <main+0x5050>
    c970:	e5933000 	ldr	r3, [r3]
    c974:	e3530004 	cmp	r3, #4
    c978:	da000039 	ble	ca64 <main+0x49b4>
    c97c:	e59f3770 	ldr	r3, [pc, #1904]	; d0f4 <main+0x5044>
    c980:	e5933000 	ldr	r3, [r3]
    c984:	e2833003 	add	r3, r3, #3
    c988:	e3530006 	cmp	r3, #6
    c98c:	ca000034 	bgt	ca64 <main+0x49b4>
    c990:	e59f3770 	ldr	r3, [pc, #1904]	; d108 <main+0x5058>
    c994:	e5932004 	ldr	r2, [r3, #4]
    c998:	e59f3768 	ldr	r3, [pc, #1896]	; d108 <main+0x5058>
    c99c:	e5933010 	ldr	r3, [r3, #16]
    c9a0:	e1520003 	cmp	r2, r3
    c9a4:	1a00002e 	bne	ca64 <main+0x49b4>
    c9a8:	e59f3758 	ldr	r3, [pc, #1880]	; d108 <main+0x5058>
    c9ac:	e5932004 	ldr	r2, [r3, #4]
    c9b0:	e59f3750 	ldr	r3, [pc, #1872]	; d108 <main+0x5058>
    c9b4:	e593300c 	ldr	r3, [r3, #12]
    c9b8:	e1520003 	cmp	r2, r3
    c9bc:	1a000028 	bne	ca64 <main+0x49b4>
    c9c0:	e59f3740 	ldr	r3, [pc, #1856]	; d108 <main+0x5058>
    c9c4:	e5933008 	ldr	r3, [r3, #8]
    c9c8:	e58d327c 	str	r3, [sp, #636]	; 0x27c
    c9cc:	e59f3734 	ldr	r3, [pc, #1844]	; d108 <main+0x5058>
    c9d0:	e5933004 	ldr	r3, [r3, #4]
    c9d4:	e58d3278 	str	r3, [sp, #632]	; 0x278
    c9d8:	e59d2278 	ldr	r2, [sp, #632]	; 0x278
    c9dc:	e59d327c 	ldr	r3, [sp, #636]	; 0x27c
    c9e0:	e1520003 	cmp	r2, r3
    c9e4:	da00001e 	ble	ca64 <main+0x49b4>
    c9e8:	e59f3710 	ldr	r3, [pc, #1808]	; d100 <main+0x5050>
    c9ec:	e5933000 	ldr	r3, [r3]
    c9f0:	e2433004 	sub	r3, r3, #4
    c9f4:	e59f2704 	ldr	r2, [pc, #1796]	; d100 <main+0x5050>
    c9f8:	e5823000 	str	r3, [r2]
    c9fc:	e59d227c 	ldr	r2, [sp, #636]	; 0x27c
    ca00:	e59d3278 	ldr	r3, [sp, #632]	; 0x278
    ca04:	e0823003 	add	r3, r2, r3
    ca08:	e58d3274 	str	r3, [sp, #628]	; 0x274
    ca0c:	e59f36e0 	ldr	r3, [pc, #1760]	; d0f4 <main+0x5044>
    ca10:	e5933000 	ldr	r3, [r3]
    ca14:	e59f16dc 	ldr	r1, [pc, #1756]	; d0f8 <main+0x5048>
    ca18:	e59d227c 	ldr	r2, [sp, #636]	; 0x27c
    ca1c:	e7812103 	str	r2, [r1, r3, lsl #2]
    ca20:	e59f36cc 	ldr	r3, [pc, #1740]	; d0f4 <main+0x5044>
    ca24:	e5933000 	ldr	r3, [r3]
    ca28:	e2833001 	add	r3, r3, #1
    ca2c:	e59f16c4 	ldr	r1, [pc, #1732]	; d0f8 <main+0x5048>
    ca30:	e59d2278 	ldr	r2, [sp, #632]	; 0x278
    ca34:	e7812103 	str	r2, [r1, r3, lsl #2]
    ca38:	e59f36b4 	ldr	r3, [pc, #1716]	; d0f4 <main+0x5044>
    ca3c:	e5933000 	ldr	r3, [r3]
    ca40:	e2833002 	add	r3, r3, #2
    ca44:	e59f16ac 	ldr	r1, [pc, #1708]	; d0f8 <main+0x5048>
    ca48:	e59d2274 	ldr	r2, [sp, #628]	; 0x274
    ca4c:	e7812103 	str	r2, [r1, r3, lsl #2]
    ca50:	e59f369c 	ldr	r3, [pc, #1692]	; d0f4 <main+0x5044>
    ca54:	e5933000 	ldr	r3, [r3]
    ca58:	e2833003 	add	r3, r3, #3
    ca5c:	e59f2690 	ldr	r2, [pc, #1680]	; d0f4 <main+0x5044>
    ca60:	e5823000 	str	r3, [r2]
    ca64:	e59f3694 	ldr	r3, [pc, #1684]	; d100 <main+0x5050>
    ca68:	e5933000 	ldr	r3, [r3]
    ca6c:	e3530004 	cmp	r3, #4
    ca70:	da00003d 	ble	cb6c <main+0x4abc>
    ca74:	e59f3678 	ldr	r3, [pc, #1656]	; d0f4 <main+0x5044>
    ca78:	e5933000 	ldr	r3, [r3]
    ca7c:	e2833003 	add	r3, r3, #3
    ca80:	e3530006 	cmp	r3, #6
    ca84:	ca000038 	bgt	cb6c <main+0x4abc>
    ca88:	e59f3678 	ldr	r3, [pc, #1656]	; d108 <main+0x5058>
    ca8c:	e593200c 	ldr	r2, [r3, #12]
    ca90:	e59f3670 	ldr	r3, [pc, #1648]	; d108 <main+0x5058>
    ca94:	e5933000 	ldr	r3, [r3]
    ca98:	e1520003 	cmp	r2, r3
    ca9c:	1a000032 	bne	cb6c <main+0x4abc>
    caa0:	e59f3660 	ldr	r3, [pc, #1632]	; d108 <main+0x5058>
    caa4:	e593200c 	ldr	r2, [r3, #12]
    caa8:	e59f3658 	ldr	r3, [pc, #1624]	; d108 <main+0x5058>
    caac:	e5933010 	ldr	r3, [r3, #16]
    cab0:	e1520003 	cmp	r2, r3
    cab4:	1a00002c 	bne	cb6c <main+0x4abc>
    cab8:	e59f3648 	ldr	r3, [pc, #1608]	; d108 <main+0x5058>
    cabc:	e5933008 	ldr	r3, [r3, #8]
    cac0:	e58d3270 	str	r3, [sp, #624]	; 0x270
    cac4:	e59f363c 	ldr	r3, [pc, #1596]	; d108 <main+0x5058>
    cac8:	e593300c 	ldr	r3, [r3, #12]
    cacc:	e58d326c 	str	r3, [sp, #620]	; 0x26c
    cad0:	e59d226c 	ldr	r2, [sp, #620]	; 0x26c
    cad4:	e59d3270 	ldr	r3, [sp, #624]	; 0x270
    cad8:	e1520003 	cmp	r2, r3
    cadc:	da000022 	ble	cb6c <main+0x4abc>
    cae0:	e59f3620 	ldr	r3, [pc, #1568]	; d108 <main+0x5058>
    cae4:	e5933004 	ldr	r3, [r3, #4]
    cae8:	e59f2618 	ldr	r2, [pc, #1560]	; d108 <main+0x5058>
    caec:	e5823000 	str	r3, [r2]
    caf0:	e59f3608 	ldr	r3, [pc, #1544]	; d100 <main+0x5050>
    caf4:	e5933000 	ldr	r3, [r3]
    caf8:	e2433004 	sub	r3, r3, #4
    cafc:	e59f25fc 	ldr	r2, [pc, #1532]	; d100 <main+0x5050>
    cb00:	e5823000 	str	r3, [r2]
    cb04:	e59d2270 	ldr	r2, [sp, #624]	; 0x270
    cb08:	e59d326c 	ldr	r3, [sp, #620]	; 0x26c
    cb0c:	e0823003 	add	r3, r2, r3
    cb10:	e58d3268 	str	r3, [sp, #616]	; 0x268
    cb14:	e59f35d8 	ldr	r3, [pc, #1496]	; d0f4 <main+0x5044>
    cb18:	e5933000 	ldr	r3, [r3]
    cb1c:	e59f15d4 	ldr	r1, [pc, #1492]	; d0f8 <main+0x5048>
    cb20:	e59d2270 	ldr	r2, [sp, #624]	; 0x270
    cb24:	e7812103 	str	r2, [r1, r3, lsl #2]
    cb28:	e59f35c4 	ldr	r3, [pc, #1476]	; d0f4 <main+0x5044>
    cb2c:	e5933000 	ldr	r3, [r3]
    cb30:	e2833001 	add	r3, r3, #1
    cb34:	e59f15bc 	ldr	r1, [pc, #1468]	; d0f8 <main+0x5048>
    cb38:	e59d226c 	ldr	r2, [sp, #620]	; 0x26c
    cb3c:	e7812103 	str	r2, [r1, r3, lsl #2]
    cb40:	e59f35ac 	ldr	r3, [pc, #1452]	; d0f4 <main+0x5044>
    cb44:	e5933000 	ldr	r3, [r3]
    cb48:	e2833002 	add	r3, r3, #2
    cb4c:	e59f15a4 	ldr	r1, [pc, #1444]	; d0f8 <main+0x5048>
    cb50:	e59d2268 	ldr	r2, [sp, #616]	; 0x268
    cb54:	e7812103 	str	r2, [r1, r3, lsl #2]
    cb58:	e59f3594 	ldr	r3, [pc, #1428]	; d0f4 <main+0x5044>
    cb5c:	e5933000 	ldr	r3, [r3]
    cb60:	e2833003 	add	r3, r3, #3
    cb64:	e59f2588 	ldr	r2, [pc, #1416]	; d0f4 <main+0x5044>
    cb68:	e5823000 	str	r3, [r2]
    cb6c:	e59f358c 	ldr	r3, [pc, #1420]	; d100 <main+0x5050>
    cb70:	e5933000 	ldr	r3, [r3]
    cb74:	e3530004 	cmp	r3, #4
    cb78:	da000039 	ble	cc64 <main+0x4bb4>
    cb7c:	e59f3570 	ldr	r3, [pc, #1392]	; d0f4 <main+0x5044>
    cb80:	e5933000 	ldr	r3, [r3]
    cb84:	e2833003 	add	r3, r3, #3
    cb88:	e3530006 	cmp	r3, #6
    cb8c:	ca000034 	bgt	cc64 <main+0x4bb4>
    cb90:	e59f3570 	ldr	r3, [pc, #1392]	; d108 <main+0x5058>
    cb94:	e593200c 	ldr	r2, [r3, #12]
    cb98:	e59f3568 	ldr	r3, [pc, #1384]	; d108 <main+0x5058>
    cb9c:	e5933004 	ldr	r3, [r3, #4]
    cba0:	e1520003 	cmp	r2, r3
    cba4:	1a00002e 	bne	cc64 <main+0x4bb4>
    cba8:	e59f3558 	ldr	r3, [pc, #1368]	; d108 <main+0x5058>
    cbac:	e593200c 	ldr	r2, [r3, #12]
    cbb0:	e59f3550 	ldr	r3, [pc, #1360]	; d108 <main+0x5058>
    cbb4:	e5933010 	ldr	r3, [r3, #16]
    cbb8:	e1520003 	cmp	r2, r3
    cbbc:	1a000028 	bne	cc64 <main+0x4bb4>
    cbc0:	e59f3540 	ldr	r3, [pc, #1344]	; d108 <main+0x5058>
    cbc4:	e5933008 	ldr	r3, [r3, #8]
    cbc8:	e58d3264 	str	r3, [sp, #612]	; 0x264
    cbcc:	e59f3534 	ldr	r3, [pc, #1332]	; d108 <main+0x5058>
    cbd0:	e593300c 	ldr	r3, [r3, #12]
    cbd4:	e58d3260 	str	r3, [sp, #608]	; 0x260
    cbd8:	e59d2260 	ldr	r2, [sp, #608]	; 0x260
    cbdc:	e59d3264 	ldr	r3, [sp, #612]	; 0x264
    cbe0:	e1520003 	cmp	r2, r3
    cbe4:	da00001e 	ble	cc64 <main+0x4bb4>
    cbe8:	e59f3510 	ldr	r3, [pc, #1296]	; d100 <main+0x5050>
    cbec:	e5933000 	ldr	r3, [r3]
    cbf0:	e2433004 	sub	r3, r3, #4
    cbf4:	e59f2504 	ldr	r2, [pc, #1284]	; d100 <main+0x5050>
    cbf8:	e5823000 	str	r3, [r2]
    cbfc:	e59d2264 	ldr	r2, [sp, #612]	; 0x264
    cc00:	e59d3260 	ldr	r3, [sp, #608]	; 0x260
    cc04:	e0823003 	add	r3, r2, r3
    cc08:	e58d325c 	str	r3, [sp, #604]	; 0x25c
    cc0c:	e59f34e0 	ldr	r3, [pc, #1248]	; d0f4 <main+0x5044>
    cc10:	e5933000 	ldr	r3, [r3]
    cc14:	e59f14dc 	ldr	r1, [pc, #1244]	; d0f8 <main+0x5048>
    cc18:	e59d2264 	ldr	r2, [sp, #612]	; 0x264
    cc1c:	e7812103 	str	r2, [r1, r3, lsl #2]
    cc20:	e59f34cc 	ldr	r3, [pc, #1228]	; d0f4 <main+0x5044>
    cc24:	e5933000 	ldr	r3, [r3]
    cc28:	e2833001 	add	r3, r3, #1
    cc2c:	e59f14c4 	ldr	r1, [pc, #1220]	; d0f8 <main+0x5048>
    cc30:	e59d2260 	ldr	r2, [sp, #608]	; 0x260
    cc34:	e7812103 	str	r2, [r1, r3, lsl #2]
    cc38:	e59f34b4 	ldr	r3, [pc, #1204]	; d0f4 <main+0x5044>
    cc3c:	e5933000 	ldr	r3, [r3]
    cc40:	e2833002 	add	r3, r3, #2
    cc44:	e59f14ac 	ldr	r1, [pc, #1196]	; d0f8 <main+0x5048>
    cc48:	e59d225c 	ldr	r2, [sp, #604]	; 0x25c
    cc4c:	e7812103 	str	r2, [r1, r3, lsl #2]
    cc50:	e59f349c 	ldr	r3, [pc, #1180]	; d0f4 <main+0x5044>
    cc54:	e5933000 	ldr	r3, [r3]
    cc58:	e2833003 	add	r3, r3, #3
    cc5c:	e59f2490 	ldr	r2, [pc, #1168]	; d0f4 <main+0x5044>
    cc60:	e5823000 	str	r3, [r2]
    cc64:	e59f3494 	ldr	r3, [pc, #1172]	; d100 <main+0x5050>
    cc68:	e5933000 	ldr	r3, [r3]
    cc6c:	e3530004 	cmp	r3, #4
    cc70:	da00003d 	ble	cd6c <main+0x4cbc>
    cc74:	e59f3478 	ldr	r3, [pc, #1144]	; d0f4 <main+0x5044>
    cc78:	e5933000 	ldr	r3, [r3]
    cc7c:	e2833003 	add	r3, r3, #3
    cc80:	e3530006 	cmp	r3, #6
    cc84:	ca000038 	bgt	cd6c <main+0x4cbc>
    cc88:	e59f3478 	ldr	r3, [pc, #1144]	; d108 <main+0x5058>
    cc8c:	e593200c 	ldr	r2, [r3, #12]
    cc90:	e59f3470 	ldr	r3, [pc, #1136]	; d108 <main+0x5058>
    cc94:	e5933010 	ldr	r3, [r3, #16]
    cc98:	e1520003 	cmp	r2, r3
    cc9c:	1a000032 	bne	cd6c <main+0x4cbc>
    cca0:	e59f3460 	ldr	r3, [pc, #1120]	; d108 <main+0x5058>
    cca4:	e593200c 	ldr	r2, [r3, #12]
    cca8:	e59f3458 	ldr	r3, [pc, #1112]	; d108 <main+0x5058>
    ccac:	e5933000 	ldr	r3, [r3]
    ccb0:	e1520003 	cmp	r2, r3
    ccb4:	1a00002c 	bne	cd6c <main+0x4cbc>
    ccb8:	e59f3448 	ldr	r3, [pc, #1096]	; d108 <main+0x5058>
    ccbc:	e5933008 	ldr	r3, [r3, #8]
    ccc0:	e58d3258 	str	r3, [sp, #600]	; 0x258
    ccc4:	e59f343c 	ldr	r3, [pc, #1084]	; d108 <main+0x5058>
    ccc8:	e593300c 	ldr	r3, [r3, #12]
    cccc:	e58d3254 	str	r3, [sp, #596]	; 0x254
    ccd0:	e59d2254 	ldr	r2, [sp, #596]	; 0x254
    ccd4:	e59d3258 	ldr	r3, [sp, #600]	; 0x258
    ccd8:	e1520003 	cmp	r2, r3
    ccdc:	da000022 	ble	cd6c <main+0x4cbc>
    cce0:	e59f3420 	ldr	r3, [pc, #1056]	; d108 <main+0x5058>
    cce4:	e5933004 	ldr	r3, [r3, #4]
    cce8:	e59f2418 	ldr	r2, [pc, #1048]	; d108 <main+0x5058>
    ccec:	e5823000 	str	r3, [r2]
    ccf0:	e59f3408 	ldr	r3, [pc, #1032]	; d100 <main+0x5050>
    ccf4:	e5933000 	ldr	r3, [r3]
    ccf8:	e2433004 	sub	r3, r3, #4
    ccfc:	e59f23fc 	ldr	r2, [pc, #1020]	; d100 <main+0x5050>
    cd00:	e5823000 	str	r3, [r2]
    cd04:	e59d2258 	ldr	r2, [sp, #600]	; 0x258
    cd08:	e59d3254 	ldr	r3, [sp, #596]	; 0x254
    cd0c:	e0823003 	add	r3, r2, r3
    cd10:	e58d3250 	str	r3, [sp, #592]	; 0x250
    cd14:	e59f33d8 	ldr	r3, [pc, #984]	; d0f4 <main+0x5044>
    cd18:	e5933000 	ldr	r3, [r3]
    cd1c:	e59f13d4 	ldr	r1, [pc, #980]	; d0f8 <main+0x5048>
    cd20:	e59d2258 	ldr	r2, [sp, #600]	; 0x258
    cd24:	e7812103 	str	r2, [r1, r3, lsl #2]
    cd28:	e59f33c4 	ldr	r3, [pc, #964]	; d0f4 <main+0x5044>
    cd2c:	e5933000 	ldr	r3, [r3]
    cd30:	e2833001 	add	r3, r3, #1
    cd34:	e59f13bc 	ldr	r1, [pc, #956]	; d0f8 <main+0x5048>
    cd38:	e59d2254 	ldr	r2, [sp, #596]	; 0x254
    cd3c:	e7812103 	str	r2, [r1, r3, lsl #2]
    cd40:	e59f33ac 	ldr	r3, [pc, #940]	; d0f4 <main+0x5044>
    cd44:	e5933000 	ldr	r3, [r3]
    cd48:	e2833002 	add	r3, r3, #2
    cd4c:	e59f13a4 	ldr	r1, [pc, #932]	; d0f8 <main+0x5048>
    cd50:	e59d2250 	ldr	r2, [sp, #592]	; 0x250
    cd54:	e7812103 	str	r2, [r1, r3, lsl #2]
    cd58:	e59f3394 	ldr	r3, [pc, #916]	; d0f4 <main+0x5044>
    cd5c:	e5933000 	ldr	r3, [r3]
    cd60:	e2833003 	add	r3, r3, #3
    cd64:	e59f2388 	ldr	r2, [pc, #904]	; d0f4 <main+0x5044>
    cd68:	e5823000 	str	r3, [r2]
    cd6c:	e59f338c 	ldr	r3, [pc, #908]	; d100 <main+0x5050>
    cd70:	e5933000 	ldr	r3, [r3]
    cd74:	e3530004 	cmp	r3, #4
    cd78:	da000039 	ble	ce64 <main+0x4db4>
    cd7c:	e59f3370 	ldr	r3, [pc, #880]	; d0f4 <main+0x5044>
    cd80:	e5933000 	ldr	r3, [r3]
    cd84:	e2833003 	add	r3, r3, #3
    cd88:	e3530006 	cmp	r3, #6
    cd8c:	ca000034 	bgt	ce64 <main+0x4db4>
    cd90:	e59f3370 	ldr	r3, [pc, #880]	; d108 <main+0x5058>
    cd94:	e593200c 	ldr	r2, [r3, #12]
    cd98:	e59f3368 	ldr	r3, [pc, #872]	; d108 <main+0x5058>
    cd9c:	e5933010 	ldr	r3, [r3, #16]
    cda0:	e1520003 	cmp	r2, r3
    cda4:	1a00002e 	bne	ce64 <main+0x4db4>
    cda8:	e59f3358 	ldr	r3, [pc, #856]	; d108 <main+0x5058>
    cdac:	e593200c 	ldr	r2, [r3, #12]
    cdb0:	e59f3350 	ldr	r3, [pc, #848]	; d108 <main+0x5058>
    cdb4:	e5933004 	ldr	r3, [r3, #4]
    cdb8:	e1520003 	cmp	r2, r3
    cdbc:	1a000028 	bne	ce64 <main+0x4db4>
    cdc0:	e59f3340 	ldr	r3, [pc, #832]	; d108 <main+0x5058>
    cdc4:	e5933008 	ldr	r3, [r3, #8]
    cdc8:	e58d324c 	str	r3, [sp, #588]	; 0x24c
    cdcc:	e59f3334 	ldr	r3, [pc, #820]	; d108 <main+0x5058>
    cdd0:	e593300c 	ldr	r3, [r3, #12]
    cdd4:	e58d3248 	str	r3, [sp, #584]	; 0x248
    cdd8:	e59d2248 	ldr	r2, [sp, #584]	; 0x248
    cddc:	e59d324c 	ldr	r3, [sp, #588]	; 0x24c
    cde0:	e1520003 	cmp	r2, r3
    cde4:	da00001e 	ble	ce64 <main+0x4db4>
    cde8:	e59f3310 	ldr	r3, [pc, #784]	; d100 <main+0x5050>
    cdec:	e5933000 	ldr	r3, [r3]
    cdf0:	e2433004 	sub	r3, r3, #4
    cdf4:	e59f2304 	ldr	r2, [pc, #772]	; d100 <main+0x5050>
    cdf8:	e5823000 	str	r3, [r2]
    cdfc:	e59d224c 	ldr	r2, [sp, #588]	; 0x24c
    ce00:	e59d3248 	ldr	r3, [sp, #584]	; 0x248
    ce04:	e0823003 	add	r3, r2, r3
    ce08:	e58d3244 	str	r3, [sp, #580]	; 0x244
    ce0c:	e59f32e0 	ldr	r3, [pc, #736]	; d0f4 <main+0x5044>
    ce10:	e5933000 	ldr	r3, [r3]
    ce14:	e59f12dc 	ldr	r1, [pc, #732]	; d0f8 <main+0x5048>
    ce18:	e59d224c 	ldr	r2, [sp, #588]	; 0x24c
    ce1c:	e7812103 	str	r2, [r1, r3, lsl #2]
    ce20:	e59f32cc 	ldr	r3, [pc, #716]	; d0f4 <main+0x5044>
    ce24:	e5933000 	ldr	r3, [r3]
    ce28:	e2833001 	add	r3, r3, #1
    ce2c:	e59f12c4 	ldr	r1, [pc, #708]	; d0f8 <main+0x5048>
    ce30:	e59d2248 	ldr	r2, [sp, #584]	; 0x248
    ce34:	e7812103 	str	r2, [r1, r3, lsl #2]
    ce38:	e59f32b4 	ldr	r3, [pc, #692]	; d0f4 <main+0x5044>
    ce3c:	e5933000 	ldr	r3, [r3]
    ce40:	e2833002 	add	r3, r3, #2
    ce44:	e59f12ac 	ldr	r1, [pc, #684]	; d0f8 <main+0x5048>
    ce48:	e59d2244 	ldr	r2, [sp, #580]	; 0x244
    ce4c:	e7812103 	str	r2, [r1, r3, lsl #2]
    ce50:	e59f329c 	ldr	r3, [pc, #668]	; d0f4 <main+0x5044>
    ce54:	e5933000 	ldr	r3, [r3]
    ce58:	e2833003 	add	r3, r3, #3
    ce5c:	e59f2290 	ldr	r2, [pc, #656]	; d0f4 <main+0x5044>
    ce60:	e5823000 	str	r3, [r2]
    ce64:	e59f3294 	ldr	r3, [pc, #660]	; d100 <main+0x5050>
    ce68:	e5933000 	ldr	r3, [r3]
    ce6c:	e3530004 	cmp	r3, #4
    ce70:	da00003d 	ble	cf6c <main+0x4ebc>
    ce74:	e59f3278 	ldr	r3, [pc, #632]	; d0f4 <main+0x5044>
    ce78:	e5933000 	ldr	r3, [r3]
    ce7c:	e2833003 	add	r3, r3, #3
    ce80:	e3530006 	cmp	r3, #6
    ce84:	ca000038 	bgt	cf6c <main+0x4ebc>
    ce88:	e59f3278 	ldr	r3, [pc, #632]	; d108 <main+0x5058>
    ce8c:	e5932010 	ldr	r2, [r3, #16]
    ce90:	e59f3270 	ldr	r3, [pc, #624]	; d108 <main+0x5058>
    ce94:	e5933000 	ldr	r3, [r3]
    ce98:	e1520003 	cmp	r2, r3
    ce9c:	1a000032 	bne	cf6c <main+0x4ebc>
    cea0:	e59f3260 	ldr	r3, [pc, #608]	; d108 <main+0x5058>
    cea4:	e5932010 	ldr	r2, [r3, #16]
    cea8:	e59f3258 	ldr	r3, [pc, #600]	; d108 <main+0x5058>
    ceac:	e5933004 	ldr	r3, [r3, #4]
    ceb0:	e1520003 	cmp	r2, r3
    ceb4:	1a00002c 	bne	cf6c <main+0x4ebc>
    ceb8:	e59f3248 	ldr	r3, [pc, #584]	; d108 <main+0x5058>
    cebc:	e5933008 	ldr	r3, [r3, #8]
    cec0:	e58d3240 	str	r3, [sp, #576]	; 0x240
    cec4:	e59f323c 	ldr	r3, [pc, #572]	; d108 <main+0x5058>
    cec8:	e5933010 	ldr	r3, [r3, #16]
    cecc:	e58d323c 	str	r3, [sp, #572]	; 0x23c
    ced0:	e59d223c 	ldr	r2, [sp, #572]	; 0x23c
    ced4:	e59d3240 	ldr	r3, [sp, #576]	; 0x240
    ced8:	e1520003 	cmp	r2, r3
    cedc:	da000022 	ble	cf6c <main+0x4ebc>
    cee0:	e59f3220 	ldr	r3, [pc, #544]	; d108 <main+0x5058>
    cee4:	e593300c 	ldr	r3, [r3, #12]
    cee8:	e59f2218 	ldr	r2, [pc, #536]	; d108 <main+0x5058>
    ceec:	e5823000 	str	r3, [r2]
    cef0:	e59f3208 	ldr	r3, [pc, #520]	; d100 <main+0x5050>
    cef4:	e5933000 	ldr	r3, [r3]
    cef8:	e2433004 	sub	r3, r3, #4
    cefc:	e59f21fc 	ldr	r2, [pc, #508]	; d100 <main+0x5050>
    cf00:	e5823000 	str	r3, [r2]
    cf04:	e59d2240 	ldr	r2, [sp, #576]	; 0x240
    cf08:	e59d323c 	ldr	r3, [sp, #572]	; 0x23c
    cf0c:	e0823003 	add	r3, r2, r3
    cf10:	e58d3238 	str	r3, [sp, #568]	; 0x238
    cf14:	e59f31d8 	ldr	r3, [pc, #472]	; d0f4 <main+0x5044>
    cf18:	e5933000 	ldr	r3, [r3]
    cf1c:	e59f11d4 	ldr	r1, [pc, #468]	; d0f8 <main+0x5048>
    cf20:	e59d2240 	ldr	r2, [sp, #576]	; 0x240
    cf24:	e7812103 	str	r2, [r1, r3, lsl #2]
    cf28:	e59f31c4 	ldr	r3, [pc, #452]	; d0f4 <main+0x5044>
    cf2c:	e5933000 	ldr	r3, [r3]
    cf30:	e2833001 	add	r3, r3, #1
    cf34:	e59f11bc 	ldr	r1, [pc, #444]	; d0f8 <main+0x5048>
    cf38:	e59d223c 	ldr	r2, [sp, #572]	; 0x23c
    cf3c:	e7812103 	str	r2, [r1, r3, lsl #2]
    cf40:	e59f31ac 	ldr	r3, [pc, #428]	; d0f4 <main+0x5044>
    cf44:	e5933000 	ldr	r3, [r3]
    cf48:	e2833002 	add	r3, r3, #2
    cf4c:	e59f11a4 	ldr	r1, [pc, #420]	; d0f8 <main+0x5048>
    cf50:	e59d2238 	ldr	r2, [sp, #568]	; 0x238
    cf54:	e7812103 	str	r2, [r1, r3, lsl #2]
    cf58:	e59f3194 	ldr	r3, [pc, #404]	; d0f4 <main+0x5044>
    cf5c:	e5933000 	ldr	r3, [r3]
    cf60:	e2833003 	add	r3, r3, #3
    cf64:	e59f2188 	ldr	r2, [pc, #392]	; d0f4 <main+0x5044>
    cf68:	e5823000 	str	r3, [r2]
    cf6c:	e59f318c 	ldr	r3, [pc, #396]	; d100 <main+0x5050>
    cf70:	e5933000 	ldr	r3, [r3]
    cf74:	e3530004 	cmp	r3, #4
    cf78:	da00003d 	ble	d074 <main+0x4fc4>
    cf7c:	e59f3170 	ldr	r3, [pc, #368]	; d0f4 <main+0x5044>
    cf80:	e5933000 	ldr	r3, [r3]
    cf84:	e2833003 	add	r3, r3, #3
    cf88:	e3530006 	cmp	r3, #6
    cf8c:	ca000038 	bgt	d074 <main+0x4fc4>
    cf90:	e59f3170 	ldr	r3, [pc, #368]	; d108 <main+0x5058>
    cf94:	e5932010 	ldr	r2, [r3, #16]
    cf98:	e59f3168 	ldr	r3, [pc, #360]	; d108 <main+0x5058>
    cf9c:	e5933000 	ldr	r3, [r3]
    cfa0:	e1520003 	cmp	r2, r3
    cfa4:	1a000032 	bne	d074 <main+0x4fc4>
    cfa8:	e59f3158 	ldr	r3, [pc, #344]	; d108 <main+0x5058>
    cfac:	e5932010 	ldr	r2, [r3, #16]
    cfb0:	e59f3150 	ldr	r3, [pc, #336]	; d108 <main+0x5058>
    cfb4:	e593300c 	ldr	r3, [r3, #12]
    cfb8:	e1520003 	cmp	r2, r3
    cfbc:	1a00002c 	bne	d074 <main+0x4fc4>
    cfc0:	e59f3140 	ldr	r3, [pc, #320]	; d108 <main+0x5058>
    cfc4:	e5933008 	ldr	r3, [r3, #8]
    cfc8:	e58d3234 	str	r3, [sp, #564]	; 0x234
    cfcc:	e59f3134 	ldr	r3, [pc, #308]	; d108 <main+0x5058>
    cfd0:	e5933010 	ldr	r3, [r3, #16]
    cfd4:	e58d3230 	str	r3, [sp, #560]	; 0x230
    cfd8:	e59d2230 	ldr	r2, [sp, #560]	; 0x230
    cfdc:	e59d3234 	ldr	r3, [sp, #564]	; 0x234
    cfe0:	e1520003 	cmp	r2, r3
    cfe4:	da000022 	ble	d074 <main+0x4fc4>
    cfe8:	e59f3118 	ldr	r3, [pc, #280]	; d108 <main+0x5058>
    cfec:	e5933004 	ldr	r3, [r3, #4]
    cff0:	e59f2110 	ldr	r2, [pc, #272]	; d108 <main+0x5058>
    cff4:	e5823000 	str	r3, [r2]
    cff8:	e59f3100 	ldr	r3, [pc, #256]	; d100 <main+0x5050>
    cffc:	e5933000 	ldr	r3, [r3]
    d000:	e2433004 	sub	r3, r3, #4
    d004:	e59f20f4 	ldr	r2, [pc, #244]	; d100 <main+0x5050>
    d008:	e5823000 	str	r3, [r2]
    d00c:	e59d2234 	ldr	r2, [sp, #564]	; 0x234
    d010:	e59d3230 	ldr	r3, [sp, #560]	; 0x230
    d014:	e0823003 	add	r3, r2, r3
    d018:	e58d322c 	str	r3, [sp, #556]	; 0x22c
    d01c:	e59f30d0 	ldr	r3, [pc, #208]	; d0f4 <main+0x5044>
    d020:	e5933000 	ldr	r3, [r3]
    d024:	e59f10cc 	ldr	r1, [pc, #204]	; d0f8 <main+0x5048>
    d028:	e59d2234 	ldr	r2, [sp, #564]	; 0x234
    d02c:	e7812103 	str	r2, [r1, r3, lsl #2]
    d030:	e59f30bc 	ldr	r3, [pc, #188]	; d0f4 <main+0x5044>
    d034:	e5933000 	ldr	r3, [r3]
    d038:	e2833001 	add	r3, r3, #1
    d03c:	e59f10b4 	ldr	r1, [pc, #180]	; d0f8 <main+0x5048>
    d040:	e59d2230 	ldr	r2, [sp, #560]	; 0x230
    d044:	e7812103 	str	r2, [r1, r3, lsl #2]
    d048:	e59f30a4 	ldr	r3, [pc, #164]	; d0f4 <main+0x5044>
    d04c:	e5933000 	ldr	r3, [r3]
    d050:	e2833002 	add	r3, r3, #2
    d054:	e59f109c 	ldr	r1, [pc, #156]	; d0f8 <main+0x5048>
    d058:	e59d222c 	ldr	r2, [sp, #556]	; 0x22c
    d05c:	e7812103 	str	r2, [r1, r3, lsl #2]
    d060:	e59f308c 	ldr	r3, [pc, #140]	; d0f4 <main+0x5044>
    d064:	e5933000 	ldr	r3, [r3]
    d068:	e2833003 	add	r3, r3, #3
    d06c:	e59f2080 	ldr	r2, [pc, #128]	; d0f4 <main+0x5044>
    d070:	e5823000 	str	r3, [r2]
    d074:	e59f3084 	ldr	r3, [pc, #132]	; d100 <main+0x5050>
    d078:	e5933000 	ldr	r3, [r3]
    d07c:	e3530004 	cmp	r3, #4
    d080:	da000044 	ble	d198 <main+0x50e8>
    d084:	e59f3068 	ldr	r3, [pc, #104]	; d0f4 <main+0x5044>
    d088:	e5933000 	ldr	r3, [r3]
    d08c:	e2833003 	add	r3, r3, #3
    d090:	e3530006 	cmp	r3, #6
    d094:	ca00003f 	bgt	d198 <main+0x50e8>
    d098:	e59f3068 	ldr	r3, [pc, #104]	; d108 <main+0x5058>
    d09c:	e5932010 	ldr	r2, [r3, #16]
    d0a0:	e59f3060 	ldr	r3, [pc, #96]	; d108 <main+0x5058>
    d0a4:	e5933004 	ldr	r3, [r3, #4]
    d0a8:	e1520003 	cmp	r2, r3
    d0ac:	1a000039 	bne	d198 <main+0x50e8>
    d0b0:	e59f3050 	ldr	r3, [pc, #80]	; d108 <main+0x5058>
    d0b4:	e5932010 	ldr	r2, [r3, #16]
    d0b8:	e59f3048 	ldr	r3, [pc, #72]	; d108 <main+0x5058>
    d0bc:	e5933000 	ldr	r3, [r3]
    d0c0:	e1520003 	cmp	r2, r3
    d0c4:	1a000033 	bne	d198 <main+0x50e8>
    d0c8:	e59f3038 	ldr	r3, [pc, #56]	; d108 <main+0x5058>
    d0cc:	e5933008 	ldr	r3, [r3, #8]
    d0d0:	e58d3228 	str	r3, [sp, #552]	; 0x228
    d0d4:	e59f302c 	ldr	r3, [pc, #44]	; d108 <main+0x5058>
    d0d8:	e5933010 	ldr	r3, [r3, #16]
    d0dc:	e58d3224 	str	r3, [sp, #548]	; 0x224
    d0e0:	e59d2224 	ldr	r2, [sp, #548]	; 0x224
    d0e4:	e59d3228 	ldr	r3, [sp, #552]	; 0x228
    d0e8:	e1520003 	cmp	r2, r3
    d0ec:	da000029 	ble	d198 <main+0x50e8>
    d0f0:	ea000005 	b	d10c <main+0x505c>
    d0f4:	0001ff64 	.word	0x0001ff64
    d0f8:	0001ff68 	.word	0x0001ff68
    d0fc:	0001ff68 	.word	0x0001ff68
    d100:	0001ff60 	.word	0x0001ff60
    d104:	0001ff64 	.word	0x0001ff64
    d108:	0001ff8c 	.word	0x0001ff8c
    d10c:	e51f300c 	ldr	r3, [pc, #-12]	; d108 <main+0x5058>
    d110:	e593300c 	ldr	r3, [r3, #12]
    d114:	e51f2014 	ldr	r2, [pc, #-20]	; d108 <main+0x5058>
    d118:	e5823000 	str	r3, [r2]
    d11c:	e51f3024 	ldr	r3, [pc, #-36]	; d100 <main+0x5050>
    d120:	e5933000 	ldr	r3, [r3]
    d124:	e2433004 	sub	r3, r3, #4
    d128:	e51f2030 	ldr	r2, [pc, #-48]	; d100 <main+0x5050>
    d12c:	e5823000 	str	r3, [r2]
    d130:	e59d2228 	ldr	r2, [sp, #552]	; 0x228
    d134:	e59d3224 	ldr	r3, [sp, #548]	; 0x224
    d138:	e0823003 	add	r3, r2, r3
    d13c:	e58d3220 	str	r3, [sp, #544]	; 0x220
    d140:	e51f3044 	ldr	r3, [pc, #-68]	; d104 <main+0x5054>
    d144:	e5933000 	ldr	r3, [r3]
    d148:	e51f1054 	ldr	r1, [pc, #-84]	; d0fc <main+0x504c>
    d14c:	e59d2228 	ldr	r2, [sp, #552]	; 0x228
    d150:	e7812103 	str	r2, [r1, r3, lsl #2]
    d154:	e51f3058 	ldr	r3, [pc, #-88]	; d104 <main+0x5054>
    d158:	e5933000 	ldr	r3, [r3]
    d15c:	e2833001 	add	r3, r3, #1
    d160:	e51f106c 	ldr	r1, [pc, #-108]	; d0fc <main+0x504c>
    d164:	e59d2224 	ldr	r2, [sp, #548]	; 0x224
    d168:	e7812103 	str	r2, [r1, r3, lsl #2]
    d16c:	e51f3070 	ldr	r3, [pc, #-112]	; d104 <main+0x5054>
    d170:	e5933000 	ldr	r3, [r3]
    d174:	e2833002 	add	r3, r3, #2
    d178:	e51f1084 	ldr	r1, [pc, #-132]	; d0fc <main+0x504c>
    d17c:	e59d2220 	ldr	r2, [sp, #544]	; 0x220
    d180:	e7812103 	str	r2, [r1, r3, lsl #2]
    d184:	e51f3088 	ldr	r3, [pc, #-136]	; d104 <main+0x5054>
    d188:	e5933000 	ldr	r3, [r3]
    d18c:	e2833003 	add	r3, r3, #3
    d190:	e51f2094 	ldr	r2, [pc, #-148]	; d104 <main+0x5054>
    d194:	e5823000 	str	r3, [r2]
    d198:	e51f30a0 	ldr	r3, [pc, #-160]	; d100 <main+0x5050>
    d19c:	e5933000 	ldr	r3, [r3]
    d1a0:	e3530004 	cmp	r3, #4
    d1a4:	da000039 	ble	d290 <main+0x51e0>
    d1a8:	e51f30ac 	ldr	r3, [pc, #-172]	; d104 <main+0x5054>
    d1ac:	e5933000 	ldr	r3, [r3]
    d1b0:	e2833003 	add	r3, r3, #3
    d1b4:	e3530006 	cmp	r3, #6
    d1b8:	ca000034 	bgt	d290 <main+0x51e0>
    d1bc:	e51f30bc 	ldr	r3, [pc, #-188]	; d108 <main+0x5058>
    d1c0:	e5932010 	ldr	r2, [r3, #16]
    d1c4:	e51f30c4 	ldr	r3, [pc, #-196]	; d108 <main+0x5058>
    d1c8:	e5933004 	ldr	r3, [r3, #4]
    d1cc:	e1520003 	cmp	r2, r3
    d1d0:	1a00002e 	bne	d290 <main+0x51e0>
    d1d4:	e51f30d4 	ldr	r3, [pc, #-212]	; d108 <main+0x5058>
    d1d8:	e5932010 	ldr	r2, [r3, #16]
    d1dc:	e51f30dc 	ldr	r3, [pc, #-220]	; d108 <main+0x5058>
    d1e0:	e593300c 	ldr	r3, [r3, #12]
    d1e4:	e1520003 	cmp	r2, r3
    d1e8:	1a000028 	bne	d290 <main+0x51e0>
    d1ec:	e51f30ec 	ldr	r3, [pc, #-236]	; d108 <main+0x5058>
    d1f0:	e5933008 	ldr	r3, [r3, #8]
    d1f4:	e58d321c 	str	r3, [sp, #540]	; 0x21c
    d1f8:	e51f30f8 	ldr	r3, [pc, #-248]	; d108 <main+0x5058>
    d1fc:	e5933010 	ldr	r3, [r3, #16]
    d200:	e58d3218 	str	r3, [sp, #536]	; 0x218
    d204:	e59d2218 	ldr	r2, [sp, #536]	; 0x218
    d208:	e59d321c 	ldr	r3, [sp, #540]	; 0x21c
    d20c:	e1520003 	cmp	r2, r3
    d210:	da00001e 	ble	d290 <main+0x51e0>
    d214:	e51f311c 	ldr	r3, [pc, #-284]	; d100 <main+0x5050>
    d218:	e5933000 	ldr	r3, [r3]
    d21c:	e2433004 	sub	r3, r3, #4
    d220:	e51f2128 	ldr	r2, [pc, #-296]	; d100 <main+0x5050>
    d224:	e5823000 	str	r3, [r2]
    d228:	e59d221c 	ldr	r2, [sp, #540]	; 0x21c
    d22c:	e59d3218 	ldr	r3, [sp, #536]	; 0x218
    d230:	e0823003 	add	r3, r2, r3
    d234:	e58d3214 	str	r3, [sp, #532]	; 0x214
    d238:	e51f313c 	ldr	r3, [pc, #-316]	; d104 <main+0x5054>
    d23c:	e5933000 	ldr	r3, [r3]
    d240:	e51f114c 	ldr	r1, [pc, #-332]	; d0fc <main+0x504c>
    d244:	e59d221c 	ldr	r2, [sp, #540]	; 0x21c
    d248:	e7812103 	str	r2, [r1, r3, lsl #2]
    d24c:	e51f3150 	ldr	r3, [pc, #-336]	; d104 <main+0x5054>
    d250:	e5933000 	ldr	r3, [r3]
    d254:	e2833001 	add	r3, r3, #1
    d258:	e51f1164 	ldr	r1, [pc, #-356]	; d0fc <main+0x504c>
    d25c:	e59d2218 	ldr	r2, [sp, #536]	; 0x218
    d260:	e7812103 	str	r2, [r1, r3, lsl #2]
    d264:	e51f3168 	ldr	r3, [pc, #-360]	; d104 <main+0x5054>
    d268:	e5933000 	ldr	r3, [r3]
    d26c:	e2833002 	add	r3, r3, #2
    d270:	e51f117c 	ldr	r1, [pc, #-380]	; d0fc <main+0x504c>
    d274:	e59d2214 	ldr	r2, [sp, #532]	; 0x214
    d278:	e7812103 	str	r2, [r1, r3, lsl #2]
    d27c:	e51f3180 	ldr	r3, [pc, #-384]	; d104 <main+0x5054>
    d280:	e5933000 	ldr	r3, [r3]
    d284:	e2833003 	add	r3, r3, #3
    d288:	e51f218c 	ldr	r2, [pc, #-396]	; d104 <main+0x5054>
    d28c:	e5823000 	str	r3, [r2]
    d290:	e51f3198 	ldr	r3, [pc, #-408]	; d100 <main+0x5050>
    d294:	e5933000 	ldr	r3, [r3]
    d298:	e3530004 	cmp	r3, #4
    d29c:	da00003d 	ble	d398 <main+0x52e8>
    d2a0:	e51f31a4 	ldr	r3, [pc, #-420]	; d104 <main+0x5054>
    d2a4:	e5933000 	ldr	r3, [r3]
    d2a8:	e2833003 	add	r3, r3, #3
    d2ac:	e3530006 	cmp	r3, #6
    d2b0:	ca000038 	bgt	d398 <main+0x52e8>
    d2b4:	e51f31b4 	ldr	r3, [pc, #-436]	; d108 <main+0x5058>
    d2b8:	e5932010 	ldr	r2, [r3, #16]
    d2bc:	e51f31bc 	ldr	r3, [pc, #-444]	; d108 <main+0x5058>
    d2c0:	e593300c 	ldr	r3, [r3, #12]
    d2c4:	e1520003 	cmp	r2, r3
    d2c8:	1a000032 	bne	d398 <main+0x52e8>
    d2cc:	e51f31cc 	ldr	r3, [pc, #-460]	; d108 <main+0x5058>
    d2d0:	e5932010 	ldr	r2, [r3, #16]
    d2d4:	e51f31d4 	ldr	r3, [pc, #-468]	; d108 <main+0x5058>
    d2d8:	e5933000 	ldr	r3, [r3]
    d2dc:	e1520003 	cmp	r2, r3
    d2e0:	1a00002c 	bne	d398 <main+0x52e8>
    d2e4:	e51f31e4 	ldr	r3, [pc, #-484]	; d108 <main+0x5058>
    d2e8:	e5933008 	ldr	r3, [r3, #8]
    d2ec:	e58d3210 	str	r3, [sp, #528]	; 0x210
    d2f0:	e51f31f0 	ldr	r3, [pc, #-496]	; d108 <main+0x5058>
    d2f4:	e5933010 	ldr	r3, [r3, #16]
    d2f8:	e58d320c 	str	r3, [sp, #524]	; 0x20c
    d2fc:	e59d220c 	ldr	r2, [sp, #524]	; 0x20c
    d300:	e59d3210 	ldr	r3, [sp, #528]	; 0x210
    d304:	e1520003 	cmp	r2, r3
    d308:	da000022 	ble	d398 <main+0x52e8>
    d30c:	e51f320c 	ldr	r3, [pc, #-524]	; d108 <main+0x5058>
    d310:	e5933004 	ldr	r3, [r3, #4]
    d314:	e51f2214 	ldr	r2, [pc, #-532]	; d108 <main+0x5058>
    d318:	e5823000 	str	r3, [r2]
    d31c:	e51f3224 	ldr	r3, [pc, #-548]	; d100 <main+0x5050>
    d320:	e5933000 	ldr	r3, [r3]
    d324:	e2433004 	sub	r3, r3, #4
    d328:	e51f2230 	ldr	r2, [pc, #-560]	; d100 <main+0x5050>
    d32c:	e5823000 	str	r3, [r2]
    d330:	e59d2210 	ldr	r2, [sp, #528]	; 0x210
    d334:	e59d320c 	ldr	r3, [sp, #524]	; 0x20c
    d338:	e0823003 	add	r3, r2, r3
    d33c:	e58d3208 	str	r3, [sp, #520]	; 0x208
    d340:	e51f3244 	ldr	r3, [pc, #-580]	; d104 <main+0x5054>
    d344:	e5933000 	ldr	r3, [r3]
    d348:	e51f1254 	ldr	r1, [pc, #-596]	; d0fc <main+0x504c>
    d34c:	e59d2210 	ldr	r2, [sp, #528]	; 0x210
    d350:	e7812103 	str	r2, [r1, r3, lsl #2]
    d354:	e51f3258 	ldr	r3, [pc, #-600]	; d104 <main+0x5054>
    d358:	e5933000 	ldr	r3, [r3]
    d35c:	e2833001 	add	r3, r3, #1
    d360:	e51f126c 	ldr	r1, [pc, #-620]	; d0fc <main+0x504c>
    d364:	e59d220c 	ldr	r2, [sp, #524]	; 0x20c
    d368:	e7812103 	str	r2, [r1, r3, lsl #2]
    d36c:	e51f3270 	ldr	r3, [pc, #-624]	; d104 <main+0x5054>
    d370:	e5933000 	ldr	r3, [r3]
    d374:	e2833002 	add	r3, r3, #2
    d378:	e51f1284 	ldr	r1, [pc, #-644]	; d0fc <main+0x504c>
    d37c:	e59d2208 	ldr	r2, [sp, #520]	; 0x208
    d380:	e7812103 	str	r2, [r1, r3, lsl #2]
    d384:	e51f3288 	ldr	r3, [pc, #-648]	; d104 <main+0x5054>
    d388:	e5933000 	ldr	r3, [r3]
    d38c:	e2833003 	add	r3, r3, #3
    d390:	e51f2294 	ldr	r2, [pc, #-660]	; d104 <main+0x5054>
    d394:	e5823000 	str	r3, [r2]
    d398:	e51f32a0 	ldr	r3, [pc, #-672]	; d100 <main+0x5050>
    d39c:	e5933000 	ldr	r3, [r3]
    d3a0:	e3530004 	cmp	r3, #4
    d3a4:	da000039 	ble	d490 <main+0x53e0>
    d3a8:	e51f32ac 	ldr	r3, [pc, #-684]	; d104 <main+0x5054>
    d3ac:	e5933000 	ldr	r3, [r3]
    d3b0:	e2833003 	add	r3, r3, #3
    d3b4:	e3530006 	cmp	r3, #6
    d3b8:	ca000034 	bgt	d490 <main+0x53e0>
    d3bc:	e51f32bc 	ldr	r3, [pc, #-700]	; d108 <main+0x5058>
    d3c0:	e5932010 	ldr	r2, [r3, #16]
    d3c4:	e51f32c4 	ldr	r3, [pc, #-708]	; d108 <main+0x5058>
    d3c8:	e593300c 	ldr	r3, [r3, #12]
    d3cc:	e1520003 	cmp	r2, r3
    d3d0:	1a00002e 	bne	d490 <main+0x53e0>
    d3d4:	e51f32d4 	ldr	r3, [pc, #-724]	; d108 <main+0x5058>
    d3d8:	e5932010 	ldr	r2, [r3, #16]
    d3dc:	e51f32dc 	ldr	r3, [pc, #-732]	; d108 <main+0x5058>
    d3e0:	e5933004 	ldr	r3, [r3, #4]
    d3e4:	e1520003 	cmp	r2, r3
    d3e8:	1a000028 	bne	d490 <main+0x53e0>
    d3ec:	e51f32ec 	ldr	r3, [pc, #-748]	; d108 <main+0x5058>
    d3f0:	e5933008 	ldr	r3, [r3, #8]
    d3f4:	e58d3204 	str	r3, [sp, #516]	; 0x204
    d3f8:	e51f32f8 	ldr	r3, [pc, #-760]	; d108 <main+0x5058>
    d3fc:	e5933010 	ldr	r3, [r3, #16]
    d400:	e58d3200 	str	r3, [sp, #512]	; 0x200
    d404:	e59d2200 	ldr	r2, [sp, #512]	; 0x200
    d408:	e59d3204 	ldr	r3, [sp, #516]	; 0x204
    d40c:	e1520003 	cmp	r2, r3
    d410:	da00001e 	ble	d490 <main+0x53e0>
    d414:	e51f331c 	ldr	r3, [pc, #-796]	; d100 <main+0x5050>
    d418:	e5933000 	ldr	r3, [r3]
    d41c:	e2433004 	sub	r3, r3, #4
    d420:	e51f2328 	ldr	r2, [pc, #-808]	; d100 <main+0x5050>
    d424:	e5823000 	str	r3, [r2]
    d428:	e59d2204 	ldr	r2, [sp, #516]	; 0x204
    d42c:	e59d3200 	ldr	r3, [sp, #512]	; 0x200
    d430:	e0823003 	add	r3, r2, r3
    d434:	e58d31fc 	str	r3, [sp, #508]	; 0x1fc
    d438:	e51f333c 	ldr	r3, [pc, #-828]	; d104 <main+0x5054>
    d43c:	e5933000 	ldr	r3, [r3]
    d440:	e51f134c 	ldr	r1, [pc, #-844]	; d0fc <main+0x504c>
    d444:	e59d2204 	ldr	r2, [sp, #516]	; 0x204
    d448:	e7812103 	str	r2, [r1, r3, lsl #2]
    d44c:	e51f3350 	ldr	r3, [pc, #-848]	; d104 <main+0x5054>
    d450:	e5933000 	ldr	r3, [r3]
    d454:	e2833001 	add	r3, r3, #1
    d458:	e51f1364 	ldr	r1, [pc, #-868]	; d0fc <main+0x504c>
    d45c:	e59d2200 	ldr	r2, [sp, #512]	; 0x200
    d460:	e7812103 	str	r2, [r1, r3, lsl #2]
    d464:	e51f3368 	ldr	r3, [pc, #-872]	; d104 <main+0x5054>
    d468:	e5933000 	ldr	r3, [r3]
    d46c:	e2833002 	add	r3, r3, #2
    d470:	e51f137c 	ldr	r1, [pc, #-892]	; d0fc <main+0x504c>
    d474:	e59d21fc 	ldr	r2, [sp, #508]	; 0x1fc
    d478:	e7812103 	str	r2, [r1, r3, lsl #2]
    d47c:	e51f3380 	ldr	r3, [pc, #-896]	; d104 <main+0x5054>
    d480:	e5933000 	ldr	r3, [r3]
    d484:	e2833003 	add	r3, r3, #3
    d488:	e51f238c 	ldr	r2, [pc, #-908]	; d104 <main+0x5054>
    d48c:	e5823000 	str	r3, [r2]
    d490:	e51f3398 	ldr	r3, [pc, #-920]	; d100 <main+0x5050>
    d494:	e5933000 	ldr	r3, [r3]
    d498:	e3530004 	cmp	r3, #4
    d49c:	da00003d 	ble	d598 <main+0x54e8>
    d4a0:	e51f33a4 	ldr	r3, [pc, #-932]	; d104 <main+0x5054>
    d4a4:	e5933000 	ldr	r3, [r3]
    d4a8:	e2833003 	add	r3, r3, #3
    d4ac:	e3530006 	cmp	r3, #6
    d4b0:	ca000038 	bgt	d598 <main+0x54e8>
    d4b4:	e51f33b4 	ldr	r3, [pc, #-948]	; d108 <main+0x5058>
    d4b8:	e5932000 	ldr	r2, [r3]
    d4bc:	e51f33bc 	ldr	r3, [pc, #-956]	; d108 <main+0x5058>
    d4c0:	e5933004 	ldr	r3, [r3, #4]
    d4c4:	e1520003 	cmp	r2, r3
    d4c8:	1a000032 	bne	d598 <main+0x54e8>
    d4cc:	e51f33cc 	ldr	r3, [pc, #-972]	; d108 <main+0x5058>
    d4d0:	e5932000 	ldr	r2, [r3]
    d4d4:	e51f33d4 	ldr	r3, [pc, #-980]	; d108 <main+0x5058>
    d4d8:	e5933010 	ldr	r3, [r3, #16]
    d4dc:	e1520003 	cmp	r2, r3
    d4e0:	1a00002c 	bne	d598 <main+0x54e8>
    d4e4:	e51f33e4 	ldr	r3, [pc, #-996]	; d108 <main+0x5058>
    d4e8:	e593300c 	ldr	r3, [r3, #12]
    d4ec:	e58d31f8 	str	r3, [sp, #504]	; 0x1f8
    d4f0:	e51f33f0 	ldr	r3, [pc, #-1008]	; d108 <main+0x5058>
    d4f4:	e5933000 	ldr	r3, [r3]
    d4f8:	e58d31f4 	str	r3, [sp, #500]	; 0x1f4
    d4fc:	e59d21f4 	ldr	r2, [sp, #500]	; 0x1f4
    d500:	e59d31f8 	ldr	r3, [sp, #504]	; 0x1f8
    d504:	e1520003 	cmp	r2, r3
    d508:	da000022 	ble	d598 <main+0x54e8>
    d50c:	e51f340c 	ldr	r3, [pc, #-1036]	; d108 <main+0x5058>
    d510:	e5933008 	ldr	r3, [r3, #8]
    d514:	e51f2414 	ldr	r2, [pc, #-1044]	; d108 <main+0x5058>
    d518:	e5823000 	str	r3, [r2]
    d51c:	e51f3424 	ldr	r3, [pc, #-1060]	; d100 <main+0x5050>
    d520:	e5933000 	ldr	r3, [r3]
    d524:	e2433004 	sub	r3, r3, #4
    d528:	e51f2430 	ldr	r2, [pc, #-1072]	; d100 <main+0x5050>
    d52c:	e5823000 	str	r3, [r2]
    d530:	e59d21f8 	ldr	r2, [sp, #504]	; 0x1f8
    d534:	e59d31f4 	ldr	r3, [sp, #500]	; 0x1f4
    d538:	e0823003 	add	r3, r2, r3
    d53c:	e58d31f0 	str	r3, [sp, #496]	; 0x1f0
    d540:	e51f3444 	ldr	r3, [pc, #-1092]	; d104 <main+0x5054>
    d544:	e5933000 	ldr	r3, [r3]
    d548:	e51f1454 	ldr	r1, [pc, #-1108]	; d0fc <main+0x504c>
    d54c:	e59d21f8 	ldr	r2, [sp, #504]	; 0x1f8
    d550:	e7812103 	str	r2, [r1, r3, lsl #2]
    d554:	e51f3458 	ldr	r3, [pc, #-1112]	; d104 <main+0x5054>
